Certificate:
    Data:
        Version: 3 (0x2)
        Serial Number: 1 (0x1)
    Signature Algorithm: ecdsa-with-SHA256
        Issuer: CN=estExampleTestMfg1CA
        Validity
            Not Before: Apr 22 19:06:37 2019 GMT
            Not After : Apr 22 19:06:37 2039 GMT
        Subject: CN=estExampleTestMfg1CA1-0
        Subject Public Key Info:
            Public Key Algorithm: id-ecPublicKey
                Public-Key: (256 bit)
                pub: 
                    04:49:d5:66:ac:2d:74:06:f7:0a:d8:68:73:bd:b1:
                    2e:03:26:89:0e:bc:aa:6a:a0:52:b6:58:cf:25:b8:
                    12:bd:65:48:4a:00:b6:29:fb:8f:99:54:20:18:ca:
                    bc:71:68:14:54:58:f9:4a:a9:0e:bd:63:1f:35:d6:
                    d2:c2:db:87:7c
                ASN1 OID: prime256v1
                NIST CURVE: P-256
        X509v3 extensions:
            X509v3 Basic Constraints: 
                CA:TRUE
            X509v3 Key Usage: 
                Certificate Sign
            X509v3 CRL Distribution Points: 

                Full Name:
                  URI:http://example.com/crl.pem

            X509v3 Subject Key Identifier: 
                E0:DA:52:42:EF:17:88:25:A2:4A:27:20:79:C4:37:81:48:4A:A1:48
            X509v3 Authority Key Identifier: 
                keyid:28:E0:BD:76:8D:9C:33:13:32:03:7C:F0:9C:9B:D6:28:DC:AA:E9:79

    Signature Algorithm: ecdsa-with-SHA256
         30:46:02:21:00:dc:2e:95:e2:7a:1c:d8:43:a1:7c:45:d2:cf:
         21:7a:67:5e:2c:7e:67:c2:79:16:10:90:e4:1c:2e:9d:e0:89:
         f5:02:21:00:df:1c:ba:8f:8e:e3:6a:70:14:c4:e3:9d:97:0b:
         31:18:17:07:ae:52:a6:6c:4c:20:1a:6a:8f:a3:78:e5:80:bc
-----BEGIN CERTIFICATE-----
MIIBvTCCAWKgAwIBAgIBATAKBggqhkjOPQQDAjAfMR0wGwYDVQQDDBRlc3RFeGFt
cGxlVGVzdE1mZzFDQTAeFw0xOTA0MjIxOTA2MzdaFw0zOTA0MjIxOTA2MzdaMCIx
IDAeBgNVBAMMF2VzdEV4YW1wbGVUZXN0TWZnMUNBMS0wMFkwEwYHKoZIzj0CAQYI
KoZIzj0DAQcDQgAESdVmrC10BvcK2GhzvbEuAyaJDryqaqBStljPJbgSvWVISgC2
KfuPmVQgGMq8cWgUVFj5SqkOvWMfNdbSwtuHfKOBizCBiDAMBgNVHRMEBTADAQH/
MAsGA1UdDwQEAwICBDArBgNVHR8EJDAiMCCgHqAchhpodHRwOi8vZXhhbXBsZS5j
b20vY3JsLnBlbTAdBgNVHQ4EFgQU4NpSQu8XiCWiSicgecQ3gUhKoUgwHwYDVR0j
BBgwFoAUKOC9do2cMxMyA3zwnJvWKNyq6XkwCgYIKoZIzj0EAwIDSQAwRgIhANwu
leJ6HNhDoXxF0s8hemdeLH5nwnkWEJDkHC6d4In1AiEA3xy6j47janAUxOOdlwsx
GBcHrlKmbEwgGmqPo3jlgLw=
-----END CERTIFICATE-----
