Certificate:
    Data:
        Version: 3 (0x2)
        Serial Number: 2 (0x2)
    Signature Algorithm: ecdsa-with-SHA256
        Issuer: CN=estExampleTestMfg1CA1-0
        Validity
            Not Before: Apr 22 19:06:37 2019 GMT
            Not After : Apr 22 19:06:37 2039 GMT
        Subject: CN=127.0.0.1
        Subject Public Key Info:
            Public Key Algorithm: id-ecPublicKey
                Public-Key: (256 bit)
                pub: 
                    04:dc:74:a0:fb:23:e8:fe:b4:c1:49:1b:21:a6:bf:
                    3b:92:43:67:05:59:bc:56:67:23:0e:6a:bf:55:54:
                    2c:c4:98:3b:97:03:b8:18:e3:43:49:b6:86:ab:86:
                    d7:1f:14:1d:36:5d:21:00:37:68:51:01:29:cf:18:
                    0e:b5:1e:c7:37
                ASN1 OID: prime256v1
                NIST CURVE: P-256
        X509v3 extensions:
            X509v3 Basic Constraints: 
                CA:FALSE
            X509v3 Key Usage: 
                Digital Signature, Non Repudiation, Key Encipherment
            X509v3 Subject Alternative Name: 
                DNS:localhost, DNS:ip6-localhost, IP Address:127.0.0.1, IP Address:0:0:0:0:0:0:0:1
            X509v3 CRL Distribution Points: 

                Full Name:
                  URI:http://example.com/crl.pem

    Signature Algorithm: ecdsa-with-SHA256
         30:46:02:21:00:e8:f1:6b:34:7a:aa:3c:d3:17:db:e5:20:bd:
         8f:ba:0c:6c:90:b6:39:ab:fa:d1:d8:1d:7a:5f:18:27:6a:00:
         79:02:21:00:bf:bd:8c:38:ab:1b:a2:9d:82:73:e8:19:f1:66:
         b0:06:fa:b6:df:03:aa:a0:96:cc:e8:19:79:6e:00:ad:a2:a8
-----BEGIN CERTIFICATE-----
MIIBrDCCAVGgAwIBAgIBAjAKBggqhkjOPQQDAjAiMSAwHgYDVQQDDBdlc3RFeGFt
cGxlVGVzdE1mZzFDQTEtMDAeFw0xOTA0MjIxOTA2MzdaFw0zOTA0MjIxOTA2Mzda
MBQxEjAQBgNVBAMMCTEyNy4wLjAuMTBZMBMGByqGSM49AgEGCCqGSM49AwEHA0IA
BNx0oPsj6P60wUkbIaa/O5JDZwVZvFZnIw5qv1VULMSYO5cDuBjjQ0m2hquG1x8U
HTZdIQA3aFEBKc8YDrUexzejgYUwgYIwCQYDVR0TBAIwADALBgNVHQ8EBAMCBeAw
OwYDVR0RBDQwMoIJbG9jYWxob3N0gg1pcDYtbG9jYWxob3N0hwR/AAABhxAAAAAA
AAAAAAAAAAAAAAABMCsGA1UdHwQkMCIwIKAeoByGGmh0dHA6Ly9leGFtcGxlLmNv
bS9jcmwucGVtMAoGCCqGSM49BAMCA0kAMEYCIQDo8Ws0eqo80xfb5SC9j7oMbJC2
Oav60dgdel8YJ2oAeQIhAL+9jDirG6KdgnPoGfFmsAb6tt8DqqCWzOgZeW4AraKo
-----END CERTIFICATE-----
