Certificate:
    Data:
        Version: 3 (0x2)
        Serial Number: 855 (0x357)
    Signature Algorithm: ecdsa-with-SHA1
        Issuer: CN=estExampleCA
        Validity
            Not Before: Jul  3 13:50:12 2014 GMT
            Not After : Jun 15 13:50:12 2026 GMT
        Subject: CN=explicit-cert-test
        Subject Public Key Info:
            Public Key Algorithm: id-ecPublicKey
                Public-Key: (256 bit)
                pub: 
                    04:77:21:14:83:81:f3:e8:66:41:18:b3:61:19:3d:
                    a2:39:0a:1b:b3:aa:4c:04:6f:40:23:2d:5c:01:6f:
                    42:d0:53:d8:aa:8f:7d:c8:7f:5b:66:48:c7:bb:80:
                    c8:d1:99:51:32:f3:66:3e:42:89:2b:d2:9f:80:72:
                    95:5f:17:8f:59
                ASN1 OID: prime256v1
        X509v3 extensions:
            X509v3 Basic Constraints: 
                CA:FALSE
            X509v3 Subject Key Identifier: 
                FB:DE:4D:2E:0E:70:4E:69:18:40:DE:5A:1F:BD:71:2F:C5:B4:49:B2
            X509v3 Authority Key Identifier: 
                keyid:66:E5:56:CA:93:2B:02:0B:57:A4:D4:E2:ED:5F:CA:A4:EE:7D:83:F9

    Signature Algorithm: ecdsa-with-SHA1
         30:45:02:20:30:4e:85:6f:93:44:f0:de:07:e6:7e:72:13:29:
         37:1d:bb:d6:bf:00:39:58:c2:a1:99:23:bf:f9:03:a2:7c:a3:
         02:21:00:b6:de:e7:6d:bd:be:76:4e:bf:8c:e5:f8:3a:17:1c:
         61:2c:f3:65:a8:50:d6:b8:68:51:6c:39:35:b7:b2:91:62
-----BEGIN CERTIFICATE-----
MIIBbzCCARagAwIBAgICA1cwCQYHKoZIzj0EATAXMRUwEwYDVQQDEwxlc3RFeGFt
cGxlQ0EwHhcNMTQwNzAzMTM1MDEyWhcNMjYwNjE1MTM1MDEyWjAdMRswGQYDVQQD
ExJleHBsaWNpdC1jZXJ0LXRlc3QwWTATBgcqhkjOPQIBBggqhkjOPQMBBwNCAAR3
IRSDgfPoZkEYs2EZPaI5ChuzqkwEb0AjLVwBb0LQU9iqj33If1tmSMe7gMjRmVEy
82Y+Qokr0p+AcpVfF49Zo00wSzAJBgNVHRMEAjAAMB0GA1UdDgQWBBT73k0uDnBO
aRhA3lofvXEvxbRJsjAfBgNVHSMEGDAWgBRm5VbKkysCC1ek1OLtX8qk7n2D+TAJ
BgcqhkjOPQQBA0gAMEUCIDBOhW+TRPDeB+Z+chMpNx271r8AOVjCoZkjv/kDonyj
AiEAtt7nbb2+dk6/jOX4OhccYSzzZahQ1rhoUWw5NbeykWI=
-----END CERTIFICATE-----
