Certificate:
    Data:
        Version: 3 (0x2)
        Serial Number: 5 (0x5)
    Signature Algorithm: ecdsa-with-SHA1
        Issuer: CN=estEXTERNALCA
        Validity
            Not Before: Jul  3 13:49:42 2014 GMT
            Not After : Jun 15 13:49:42 2026 GMT
        Subject: CN=implicit-cert-test
        Subject Public Key Info:
            Public Key Algorithm: id-ecPublicKey
                Public-Key: (256 bit)
                pub: 
                    04:fc:e9:72:79:49:21:fd:7a:f6:79:eb:71:11:a6:
                    db:bf:20:78:a2:b2:24:eb:d5:c1:71:74:b3:81:79:
                    9a:28:e6:3c:f8:cf:d3:51:85:12:9f:c1:d7:2e:14:
                    5e:d6:8a:4c:1b:03:ba:09:91:bc:c7:99:07:af:67:
                    c4:7f:0c:f7:5d
                ASN1 OID: prime256v1
        X509v3 extensions:
            X509v3 Basic Constraints: 
                CA:FALSE
            X509v3 Subject Key Identifier: 
                84:DA:08:F7:CE:3D:6D:42:06:FE:64:D0:20:2A:7D:AE:70:53:9E:F6
            X509v3 Authority Key Identifier: 
                keyid:CF:B1:92:EB:0E:B3:8A:DC:0E:E9:55:50:4E:55:AD:A6:45:5C:58:B1

    Signature Algorithm: ecdsa-with-SHA1
         30:44:02:20:3b:cf:bc:3c:b2:c1:c9:a5:10:20:d8:59:c4:fa:
         ba:1b:26:5b:c0:4a:c0:90:0e:22:45:d0:75:54:0b:7b:2b:ac:
         02:20:22:08:8c:f6:2e:5e:e3:08:97:44:10:ef:7a:11:63:75:
         24:b6:36:2f:c0:5c:79:83:28:5d:9d:fd:10:45:f0:ac
-----BEGIN CERTIFICATE-----
MIIBbjCCARagAwIBAgIBBTAJBgcqhkjOPQQBMBgxFjAUBgNVBAMTDWVzdEVYVEVS
TkFMQ0EwHhcNMTQwNzAzMTM0OTQyWhcNMjYwNjE1MTM0OTQyWjAdMRswGQYDVQQD
ExJpbXBsaWNpdC1jZXJ0LXRlc3QwWTATBgcqhkjOPQIBBggqhkjOPQMBBwNCAAT8
6XJ5SSH9evZ563ERptu/IHiisiTr1cFxdLOBeZoo5jz4z9NRhRKfwdcuFF7Wikwb
A7oJkbzHmQevZ8R/DPddo00wSzAJBgNVHRMEAjAAMB0GA1UdDgQWBBSE2gj3zj1t
Qgb+ZNAgKn2ucFOe9jAfBgNVHSMEGDAWgBTPsZLrDrOK3A7pVVBOVa2mRVxYsTAJ
BgcqhkjOPQQBA0cAMEQCIDvPvDyywcmlECDYWcT6uhsmW8BKwJAOIkXQdVQLeyus
AiAiCIz2Ll7jCJdEEO96EWN1JLY2L8BceYMoXZ39EEXwrA==
-----END CERTIFICATE-----
