-----BEGIN CERTIFICATE-----
MIIBVDCB+6ADAgECAgkA09KBgTwntKgwCQYHKoZIzj0EATAYMRYwFAYDVQQDEw1l
c3RFWFRFUk5BTENBMB4XDTE0MDcwMjIwMjA1M1oXDTI2MDYxNDIwMjA1M1owGDEW
MBQGA1UEAxMNZXN0RVhURVJOQUxDQTBZMBMGByqGSM49AgEGCCqGSM49AwEHA0IA
BOmZMEmno73PacY6cOzOkgiPiDNEp3EmSgvzp5NKqSxodKlbOOeBEE1KitpYtI+x
iHGe+nLeCg15u4BMsnBgFRejLzAtMAwGA1UdEwQFMAMBAf8wHQYDVR0OBBYEFM+x
kusOs4rcDulVUE5VraZFXFixMAkGByqGSM49BAEDSQAwRgIhAJ9gKgovDsvl+0Pp
uJ9xKF5Sh4SSIuaXAuMHDg6NsbwpAiEAwlvGcf5HS/9XK32lKL7P7yKRaKG9xTG1
b4dXjtpSINI=
-----END CERTIFICATE-----
Certificate:
    Data:
        Version: 3 (0x2)
        Serial Number: 9 (0x9)
    Signature Algorithm: ecdsa-with-SHA1
        Issuer: CN=estEXTERNALCA
        Validity
            Not Before: Aug 26 19:07:03 2013 GMT
            Not After : Oct 25 19:07:03 2032 GMT
        Subject: CN=TRIADdepth1
        Subject Public Key Info:
            Public Key Algorithm: rsaEncryption
                Public-Key: (1024 bit)
                Modulus:
                    00:cd:45:67:f8:86:82:41:30:94:0c:7f:cb:79:d8:
                    7d:97:8f:41:3a:d8:a5:23:bb:9c:0f:fe:7d:ed:59:
                    42:a3:50:48:72:ed:43:a6:df:cc:09:fa:23:03:8e:
                    a8:8f:03:9d:8f:62:89:e7:0a:f0:45:27:59:a4:03:
                    1f:d7:3e:31:d3:61:34:d6:a4:48:8b:c8:04:04:ce:
                    1e:5f:b4:f1:f4:23:19:f3:b0:fa:d4:c6:9c:5d:a4:
                    aa:79:cf:b2:5b:01:67:e0:11:d6:e5:66:4a:83:7c:
                    b5:60:32:45:2b:75:cc:24:f4:d0:aa:80:46:a9:e3:
                    76:78:4d:09:20:18:27:fd:f1
                Exponent: 65537 (0x10001)
        X509v3 extensions:
            X509v3 Basic Constraints: 
                CA:TRUE
            X509v3 Subject Key Identifier: 
                27:B5:F5:75:E6:C7:E6:E5:C2:14:66:82:A5:3B:82:07:FB:B8:AD:A5
            X509v3 Authority Key Identifier: 
                keyid:CF:B1:92:EB:0E:B3:8A:DC:0E:E9:55:50:4E:55:AD:A6:45:5C:58:B1

    Signature Algorithm: ecdsa-with-SHA1
         30:45:02:21:00:b2:5e:f4:f7:b8:f4:28:e9:2a:09:a2:19:2e:
         d0:97:b3:32:91:cf:95:a7:22:ac:a4:b2:0f:4f:f3:b9:b5:76:
         30:02:20:5b:ae:b8:4f:02:a9:10:0c:74:3d:75:c5:92:ff:24:
         af:18:bd:01:63:b0:a1:33:05:28:c8:dc:ea:30:98:2d:08
-----BEGIN CERTIFICATE-----
MIIBsjCCAVmgAwIBAgIBCTAJBgcqhkjOPQQBMBgxFjAUBgNVBAMTDWVzdEVYVEVS
TkFMQ0EwHhcNMTMwODI2MTkwNzAzWhcNMzIxMDI1MTkwNzAzWjAWMRQwEgYDVQQD
DAtUUklBRGRlcHRoMTCBnzANBgkqhkiG9w0BAQEFAAOBjQAwgYkCgYEAzUVn+IaC
QTCUDH/Ledh9l49BOtilI7ucD/597VlCo1BIcu1Dpt/MCfojA46ojwOdj2KJ5wrw
RSdZpAMf1z4x02E01qRIi8gEBM4eX7Tx9CMZ87D61MacXaSqec+yWwFn4BHW5WZK
g3y1YDJFK3XMJPTQqoBGqeN2eE0JIBgn/fECAwEAAaNQME4wDAYDVR0TBAUwAwEB
/zAdBgNVHQ4EFgQUJ7X1debH5uXCFGaCpTuCB/u4raUwHwYDVR0jBBgwFoAUz7GS
6w6zitwO6VVQTlWtpkVcWLEwCQYHKoZIzj0EAQNIADBFAiEAsl7097j0KOkqCaIZ
LtCXszKRz5WnIqyksg9P87m1djACIFuuuE8CqRAMdD11xZL/JK8YvQFjsKEzBSjI
3OowmC0I
-----END CERTIFICATE-----
Certificate:
    Data:
        Version: 3 (0x2)
        Serial Number: 10 (0xa)
    Signature Algorithm: sha1WithRSAEncryption
        Issuer: CN=TRIADdepth1
        Validity
            Not Before: Aug 26 19:08:37 2013 GMT
            Not After : Oct 25 19:08:37 2032 GMT
        Subject: CN=TRIADdepth2
        Subject Public Key Info:
            Public Key Algorithm: rsaEncryption
                Public-Key: (1024 bit)
                Modulus:
                    00:b3:87:6b:29:e1:ee:dd:c8:58:88:0e:ce:0f:dc:
                    d2:78:5c:b7:8d:ac:04:75:98:b0:6d:16:55:3a:35:
                    71:77:f1:7a:3c:8e:8e:7b:54:1a:9e:ca:77:7d:2e:
                    b3:bf:00:67:89:c7:af:ae:35:b4:91:be:b3:11:fe:
                    24:78:c4:f7:dc:b3:48:44:ae:55:c2:db:76:c8:c2:
                    73:fe:af:96:84:2c:c9:b3:84:11:09:88:af:e0:df:
                    62:e0:6e:f4:18:d7:1f:f4:af:4a:71:ac:dc:72:d4:
                    15:ee:1d:fc:2e:61:e1:e9:2b:f8:67:08:9d:61:84:
                    4b:bc:4d:5b:cb:83:17:fa:37
                Exponent: 65537 (0x10001)
        X509v3 extensions:
            X509v3 Basic Constraints: 
                CA:TRUE
            X509v3 Subject Key Identifier: 
                43:01:F2:79:FF:58:24:0F:C3:4E:52:A5:B4:52:38:DC:9A:14:4E:40
            X509v3 Authority Key Identifier: 
                keyid:27:B5:F5:75:E6:C7:E6:E5:C2:14:66:82:A5:3B:82:07:FB:B8:AD:A5

    Signature Algorithm: sha1WithRSAEncryption
         0a:e9:9a:ff:03:bc:53:e8:60:8a:4c:5b:84:5e:a3:26:12:65:
         7f:42:e6:9a:34:fd:5c:3e:3d:8f:7a:c5:59:2e:2e:2f:05:ee:
         b2:17:46:67:d6:6b:62:4e:0a:ac:4d:f7:15:6a:b7:c3:66:ac:
         a5:0c:d1:1e:a0:13:f0:aa:f1:a2:72:b5:e2:ed:29:a1:d8:ce:
         af:f2:7b:9d:84:bf:2c:e1:bf:a7:6a:31:40:ea:c3:13:a8:28:
         66:fa:13:7b:6d:08:de:a6:cb:2b:d6:22:23:de:2e:1f:e1:14:
         53:82:d4:10:7e:93:b9:52:3d:28:75:46:1f:66:1b:c2:8f:91:
         c9:1c
-----BEGIN CERTIFICATE-----
MIIB8jCCAVugAwIBAgIBCjANBgkqhkiG9w0BAQUFADAWMRQwEgYDVQQDDAtUUklB
RGRlcHRoMTAeFw0xMzA4MjYxOTA4MzdaFw0zMjEwMjUxOTA4MzdaMBYxFDASBgNV
BAMMC1RSSUFEZGVwdGgyMIGfMA0GCSqGSIb3DQEBAQUAA4GNADCBiQKBgQCzh2sp
4e7dyFiIDs4P3NJ4XLeNrAR1mLBtFlU6NXF38Xo8jo57VBqeynd9LrO/AGeJx6+u
NbSRvrMR/iR4xPfcs0hErlXC23bIwnP+r5aELMmzhBEJiK/g32LgbvQY1x/0r0px
rNxy1BXuHfwuYeHpK/hnCJ1hhEu8TVvLgxf6NwIDAQABo1AwTjAMBgNVHRMEBTAD
AQH/MB0GA1UdDgQWBBRDAfJ5/1gkD8NOUqW0UjjcmhROQDAfBgNVHSMEGDAWgBQn
tfV15sfm5cIUZoKlO4IH+7itpTANBgkqhkiG9w0BAQUFAAOBgQAK6Zr/A7xT6GCK
TFuEXqMmEmV/QuaaNP1cPj2PesVZLi4vBe6yF0Zn1mtiTgqsTfcVarfDZqylDNEe
oBPwqvGicrXi7Smh2M6v8nudhL8s4b+najFA6sMTqChm+hN7bQjepssr1iIj3i4f
4RRTgtQQfpO5Uj0odUYfZhvCj5HJHA==
-----END CERTIFICATE-----
Certificate:
    Data:
        Version: 3 (0x2)
        Serial Number: 11 (0xb)
    Signature Algorithm: sha1WithRSAEncryption
        Issuer: CN=TRIADdepth2
        Validity
            Not Before: Aug 26 19:11:10 2013 GMT
            Not After : Oct 25 19:11:10 2032 GMT
        Subject: CN=TRIADdepth3
        Subject Public Key Info:
            Public Key Algorithm: rsaEncryption
                Public-Key: (1024 bit)
                Modulus:
                    00:ce:ec:b6:15:86:7b:f4:d7:a1:63:b5:92:6b:a4:
                    75:03:d1:16:65:ff:e8:9f:57:38:c2:33:97:e9:ca:
                    ac:48:1b:29:31:bf:50:6a:3e:0d:06:21:1f:a8:a9:
                    63:ee:01:10:b4:88:f2:0c:04:1c:a9:1a:c9:46:f6:
                    48:35:d8:8e:c4:25:a5:61:df:65:a8:a4:f6:d6:0d:
                    80:71:98:c9:93:5e:c3:9f:d8:f4:a1:44:2f:9e:10:
                    14:d1:c7:48:bf:71:4f:c9:c0:c0:cf:78:fb:e6:48:
                    ec:c1:52:13:d9:ea:17:f6:77:f2:b3:5d:5b:14:97:
                    a1:e3:73:db:cc:58:57:0e:ab
                Exponent: 65537 (0x10001)
        X509v3 extensions:
            X509v3 Basic Constraints: 
                CA:TRUE
            X509v3 Subject Key Identifier: 
                5E:36:47:BB:18:C6:50:95:39:26:42:0D:B3:C5:CD:40:F6:B4:B2:E5
            X509v3 Authority Key Identifier: 
                keyid:43:01:F2:79:FF:58:24:0F:C3:4E:52:A5:B4:52:38:DC:9A:14:4E:40

    Signature Algorithm: sha1WithRSAEncryption
         6e:af:2c:2b:4c:7d:46:fb:e7:63:aa:66:08:3f:fd:fb:20:f6:
         15:f8:a7:5d:43:05:5d:83:3b:50:ba:d9:ee:c5:18:2d:ee:f6:
         f7:fe:78:40:c2:a0:7c:2c:6d:eb:58:1d:bb:54:f4:cc:92:74:
         9c:bf:1a:d8:f8:e1:a8:e7:9b:5a:b1:3e:c5:69:61:5c:90:7b:
         02:0f:0d:05:ef:28:ea:58:d9:48:80:78:46:b7:ca:3a:d2:60:
         ef:fd:d1:08:02:15:c1:48:25:05:4a:49:55:d0:95:fd:36:ae:
         5a:3b:c3:6d:9a:c6:27:7d:08:21:a0:e8:a4:4d:37:90:b8:9f:
         7b:cd
-----BEGIN CERTIFICATE-----
MIIB8jCCAVugAwIBAgIBCzANBgkqhkiG9w0BAQUFADAWMRQwEgYDVQQDDAtUUklB
RGRlcHRoMjAeFw0xMzA4MjYxOTExMTBaFw0zMjEwMjUxOTExMTBaMBYxFDASBgNV
BAMMC1RSSUFEZGVwdGgzMIGfMA0GCSqGSIb3DQEBAQUAA4GNADCBiQKBgQDO7LYV
hnv016FjtZJrpHUD0RZl/+ifVzjCM5fpyqxIGykxv1BqPg0GIR+oqWPuARC0iPIM
BBypGslG9kg12I7EJaVh32WopPbWDYBxmMmTXsOf2PShRC+eEBTRx0i/cU/JwMDP
ePvmSOzBUhPZ6hf2d/KzXVsUl6Hjc9vMWFcOqwIDAQABo1AwTjAMBgNVHRMEBTAD
AQH/MB0GA1UdDgQWBBReNke7GMZQlTkmQg2zxc1A9rSy5TAfBgNVHSMEGDAWgBRD
AfJ5/1gkD8NOUqW0UjjcmhROQDANBgkqhkiG9w0BAQUFAAOBgQBurywrTH1G++dj
qmYIP/37IPYV+KddQwVdgztQutnuxRgt7vb3/nhAwqB8LG3rWB27VPTMknScvxrY
+OGo55tasT7FaWFckHsCDw0F7yjqWNlIgHhGt8o60mDv/dEIAhXBSCUFSklV0JX9
Nq5aO8NtmsYnfQghoOikTTeQuJ97zQ==
-----END CERTIFICATE-----
Certificate:
    Data:
        Version: 3 (0x2)
        Serial Number: 12 (0xc)
    Signature Algorithm: sha1WithRSAEncryption
        Issuer: CN=TRIADdepth3
        Validity
            Not Before: Aug 26 19:12:16 2013 GMT
            Not After : Oct 25 19:12:16 2032 GMT
        Subject: CN=TRIADdepth4
        Subject Public Key Info:
            Public Key Algorithm: rsaEncryption
                Public-Key: (1024 bit)
                Modulus:
                    00:d2:c1:f2:fc:99:e9:c0:1c:e6:6c:d6:8d:19:b0:
                    54:94:2c:a9:eb:73:5f:a5:01:d0:61:04:1e:4a:52:
                    46:b2:ac:d6:44:83:95:de:21:8d:57:de:e5:0f:a2:
                    33:ca:3d:cf:50:f6:51:a7:71:6e:75:db:b7:41:34:
                    bf:3f:12:d9:d9:74:a1:73:93:ad:0b:38:e0:c1:be:
                    83:d3:1e:54:e6:4a:9b:a8:23:59:0f:8a:56:b9:fe:
                    86:65:b9:b2:a5:41:34:3d:ef:6c:3a:aa:1f:65:ed:
                    bc:a2:7b:ca:bd:5d:8a:6a:8e:49:36:9b:e0:ec:5a:
                    29:c2:c1:10:1e:69:9b:59:5d
                Exponent: 65537 (0x10001)
        X509v3 extensions:
            X509v3 Basic Constraints: 
                CA:TRUE
            X509v3 Subject Key Identifier: 
                98:45:C4:5E:4A:20:E7:19:D0:94:41:28:A7:E0:67:AD:DB:7A:56:53
            X509v3 Authority Key Identifier: 
                keyid:5E:36:47:BB:18:C6:50:95:39:26:42:0D:B3:C5:CD:40:F6:B4:B2:E5

    Signature Algorithm: sha1WithRSAEncryption
         95:6b:b3:e5:35:87:07:68:dc:fb:f7:eb:c0:65:4b:f6:7e:1c:
         bd:56:9e:5c:ac:48:9e:d4:9c:14:22:a9:ad:4c:25:45:47:20:
         a4:06:41:a9:93:45:b6:c3:d1:a2:63:f8:9d:65:0a:af:9f:81:
         50:13:b7:ae:3c:a5:6c:50:62:a2:94:b2:e2:41:81:eb:1c:c5:
         a4:a9:44:b1:c9:84:e2:73:ec:b5:91:e1:cd:de:11:16:de:d6:
         63:4a:93:94:c5:c9:f5:89:75:e1:73:36:88:82:38:c5:29:e3:
         2d:9f:32:a6:fe:57:07:04:2e:20:63:5b:bf:75:32:5c:6e:38:
         1f:6e
-----BEGIN CERTIFICATE-----
MIIB8jCCAVugAwIBAgIBDDANBgkqhkiG9w0BAQUFADAWMRQwEgYDVQQDDAtUUklB
RGRlcHRoMzAeFw0xMzA4MjYxOTEyMTZaFw0zMjEwMjUxOTEyMTZaMBYxFDASBgNV
BAMMC1RSSUFEZGVwdGg0MIGfMA0GCSqGSIb3DQEBAQUAA4GNADCBiQKBgQDSwfL8
menAHOZs1o0ZsFSULKnrc1+lAdBhBB5KUkayrNZEg5XeIY1X3uUPojPKPc9Q9lGn
cW5127dBNL8/EtnZdKFzk60LOODBvoPTHlTmSpuoI1kPila5/oZlubKlQTQ972w6
qh9l7byie8q9XYpqjkk2m+DsWinCwRAeaZtZXQIDAQABo1AwTjAMBgNVHRMEBTAD
AQH/MB0GA1UdDgQWBBSYRcReSiDnGdCUQSin4Get23pWUzAfBgNVHSMEGDAWgBRe
Nke7GMZQlTkmQg2zxc1A9rSy5TANBgkqhkiG9w0BAQUFAAOBgQCVa7PlNYcHaNz7
9+vAZUv2fhy9Vp5crEie1JwUIqmtTCVFRyCkBkGpk0W2w9GiY/idZQqvn4FQE7eu
PKVsUGKilLLiQYHrHMWkqUSxyYTic+y1keHN3hEW3tZjSpOUxcn1iXXhczaIgjjF
KeMtnzKm/lcHBC4gY1u/dTJcbjgfbg==
-----END CERTIFICATE-----
Certificate:
    Data:
        Version: 3 (0x2)
        Serial Number: 9 (0x9)
    Signature Algorithm: sha1WithRSAEncryption
        Issuer: CN=TRIADdepth4
        Validity
            Not Before: Aug 27 17:07:22 2013 GMT
            Not After : Oct 26 17:07:22 2032 GMT
        Subject: CN=TRIADdepth5
        Subject Public Key Info:
            Public Key Algorithm: rsaEncryption
                Public-Key: (1024 bit)
                Modulus:
                    00:c1:41:85:e8:c6:cc:d6:e6:e8:2e:69:21:34:80:
                    33:5f:30:05:a5:a5:b3:25:7a:f1:9e:45:a1:ef:28:
                    ed:09:70:ae:14:ca:1a:e6:e0:f3:6c:6a:80:17:a0:
                    df:e0:fd:6c:69:6c:72:61:6f:db:1e:8a:13:92:0f:
                    e6:bf:b4:96:d6:b0:3e:8e:ee:a7:a5:7c:d7:b7:27:
                    14:7c:66:e4:3e:1f:5f:2c:cc:a8:5d:61:73:32:48:
                    41:ed:b6:83:62:57:22:cc:a5:a0:ae:e5:5f:15:bd:
                    a3:54:55:b9:aa:97:ca:60:dd:11:2e:fa:f1:6f:7a:
                    28:1c:49:51:72:d7:2d:35:bd
                Exponent: 65537 (0x10001)
        X509v3 extensions:
            X509v3 Basic Constraints: 
                CA:TRUE
            X509v3 Subject Key Identifier: 
                0F:F0:22:FF:32:FF:4A:26:A1:07:F5:7C:F0:92:83:58:07:12:5E:1D
            X509v3 Authority Key Identifier: 
                keyid:98:45:C4:5E:4A:20:E7:19:D0:94:41:28:A7:E0:67:AD:DB:7A:56:53

    Signature Algorithm: sha1WithRSAEncryption
         c8:22:be:f4:60:ac:f2:ec:7c:62:76:41:50:5f:f9:e8:7b:e9:
         11:0e:0a:35:b2:d4:af:de:e2:6d:a8:19:ab:61:f6:f5:b3:e8:
         2b:aa:3c:1c:7c:62:3a:31:83:1e:e3:a7:54:61:b5:e3:4e:b3:
         51:57:d4:4f:dc:9a:7e:81:19:42:60:d1:08:0a:7c:d8:98:0d:
         bc:5f:95:0f:ea:c5:03:02:3c:02:cf:81:29:56:5e:9f:e3:46:
         fb:c9:27:1f:32:8e:b1:c3:f7:34:83:25:2f:f6:66:db:c3:8f:
         5a:4d:09:2b:2f:cf:ef:72:e1:91:1b:2a:a4:23:f9:a6:d2:42:
         6b:a9
-----BEGIN CERTIFICATE-----
MIIB8jCCAVugAwIBAgIBCTANBgkqhkiG9w0BAQUFADAWMRQwEgYDVQQDDAtUUklB
RGRlcHRoNDAeFw0xMzA4MjcxNzA3MjJaFw0zMjEwMjYxNzA3MjJaMBYxFDASBgNV
BAMMC1RSSUFEZGVwdGg1MIGfMA0GCSqGSIb3DQEBAQUAA4GNADCBiQKBgQDBQYXo
xszW5uguaSE0gDNfMAWlpbMlevGeRaHvKO0JcK4Uyhrm4PNsaoAXoN/g/WxpbHJh
b9seihOSD+a/tJbWsD6O7qelfNe3JxR8ZuQ+H18szKhdYXMySEHttoNiVyLMpaCu
5V8VvaNUVbmql8pg3REu+vFveigcSVFy1y01vQIDAQABo1AwTjAMBgNVHRMEBTAD
AQH/MB0GA1UdDgQWBBQP8CL/Mv9KJqEH9XzwkoNYBxJeHTAfBgNVHSMEGDAWgBSY
RcReSiDnGdCUQSin4Get23pWUzANBgkqhkiG9w0BAQUFAAOBgQDIIr70YKzy7Hxi
dkFQX/noe+kRDgo1stSv3uJtqBmrYfb1s+grqjwcfGI6MYMe46dUYbXjTrNRV9RP
3Jp+gRlCYNEICnzYmA28X5UP6sUDAjwCz4EpVl6f40b7yScfMo6xw/c0gyUv9mbb
w49aTQkrL8/vcuGRGyqkI/mm0kJrqQ==
-----END CERTIFICATE-----
Certificate:
    Data:
        Version: 3 (0x2)
        Serial Number: 10 (0xa)
    Signature Algorithm: sha1WithRSAEncryption
        Issuer: CN=TRIADdepth5
        Validity
            Not Before: Aug 27 17:08:23 2013 GMT
            Not After : Oct 26 17:08:23 2032 GMT
        Subject: CN=TRIADdepth6
        Subject Public Key Info:
            Public Key Algorithm: rsaEncryption
                Public-Key: (1024 bit)
                Modulus:
                    00:e4:c7:60:9a:f2:9a:34:d3:a2:54:eb:40:68:fd:
                    ee:62:8e:01:72:09:96:dc:60:0f:78:60:86:20:e9:
                    12:32:ee:af:ce:cc:72:13:20:7b:48:6c:2d:28:99:
                    39:63:07:1b:e8:a2:60:96:b1:1a:0f:f1:8e:64:e6:
                    3a:60:2a:86:05:2c:79:02:ab:70:29:8f:88:2e:fe:
                    a4:eb:c4:7b:b5:c3:7e:01:8a:87:14:8f:8e:18:c9:
                    2d:a6:79:38:5a:21:2e:36:2b:80:82:c9:d3:26:7e:
                    ba:a2:c4:ad:1c:7c:38:d6:f4:90:9f:ba:aa:69:03:
                    9a:a0:78:45:66:d6:93:35:17
                Exponent: 65537 (0x10001)
        X509v3 extensions:
            X509v3 Basic Constraints: 
                CA:TRUE
            X509v3 Subject Key Identifier: 
                43:81:B9:B4:3F:4B:B7:B0:A6:25:FD:E1:11:9E:FE:A5:D7:7C:AE:56
            X509v3 Authority Key Identifier: 
                keyid:0F:F0:22:FF:32:FF:4A:26:A1:07:F5:7C:F0:92:83:58:07:12:5E:1D

    Signature Algorithm: sha1WithRSAEncryption
         6b:27:d4:97:f9:cd:60:3b:87:1c:ea:81:b4:95:40:e3:9b:7c:
         e8:2d:3e:28:7f:e7:43:fb:87:64:da:6f:e0:e5:ca:3d:55:c3:
         56:bd:2c:3d:38:08:c4:2f:9b:c9:c6:ef:f4:64:2e:81:28:57:
         71:91:e1:34:07:df:3e:62:de:17:5a:da:19:74:9b:98:53:cc:
         9c:2a:20:20:6d:9f:59:bb:8e:82:60:c3:a2:20:87:f6:d7:35:
         fb:6e:80:46:34:7c:54:c9:9c:b1:23:b1:e3:9d:4b:c4:30:90:
         75:45:db:d8:e5:84:d7:9f:9a:30:2a:e7:38:c0:3f:b8:ae:42:
         f7:2c
-----BEGIN CERTIFICATE-----
MIIB8jCCAVugAwIBAgIBCjANBgkqhkiG9w0BAQUFADAWMRQwEgYDVQQDDAtUUklB
RGRlcHRoNTAeFw0xMzA4MjcxNzA4MjNaFw0zMjEwMjYxNzA4MjNaMBYxFDASBgNV
BAMMC1RSSUFEZGVwdGg2MIGfMA0GCSqGSIb3DQEBAQUAA4GNADCBiQKBgQDkx2Ca
8po006JU60Bo/e5ijgFyCZbcYA94YIYg6RIy7q/OzHITIHtIbC0omTljBxvoomCW
sRoP8Y5k5jpgKoYFLHkCq3Apj4gu/qTrxHu1w34BiocUj44YyS2meThaIS42K4CC
ydMmfrqixK0cfDjW9JCfuqppA5qgeEVm1pM1FwIDAQABo1AwTjAMBgNVHRMEBTAD
AQH/MB0GA1UdDgQWBBRDgbm0P0u3sKYl/eERnv6l13yuVjAfBgNVHSMEGDAWgBQP
8CL/Mv9KJqEH9XzwkoNYBxJeHTANBgkqhkiG9w0BAQUFAAOBgQBrJ9SX+c1gO4cc
6oG0lUDjm3zoLT4of+dD+4dk2m/g5co9VcNWvSw9OAjEL5vJxu/0ZC6BKFdxkeE0
B98+Yt4XWtoZdJuYU8ycKiAgbZ9Zu46CYMOiIIf21zX7boBGNHxUyZyxI7HjnUvE
MJB1RdvY5YTXn5owKuc4wD+4rkL3LA==
-----END CERTIFICATE-----
Certificate:
    Data:
        Version: 3 (0x2)
        Serial Number: 11 (0xb)
    Signature Algorithm: sha1WithRSAEncryption
        Issuer: CN=TRIADdepth6
        Validity
            Not Before: Aug 27 17:08:52 2013 GMT
            Not After : Oct 26 17:08:52 2032 GMT
        Subject: CN=TRIADdepth7
        Subject Public Key Info:
            Public Key Algorithm: rsaEncryption
                Public-Key: (1024 bit)
                Modulus:
                    00:d0:cc:50:50:f8:44:ae:03:18:69:72:a6:0d:71:
                    4f:f4:fb:4e:5e:94:da:fb:f2:f5:40:43:a7:37:d2:
                    68:51:fa:42:d2:b3:fa:09:0e:0d:a5:46:88:79:3e:
                    4c:ed:b6:63:59:b2:c7:2d:ae:0b:87:71:13:da:8e:
                    e0:48:c0:56:c1:1a:a0:92:3f:82:3a:72:f3:6b:99:
                    36:f0:93:2a:4e:86:43:7a:a9:bf:81:4b:d5:d3:3a:
                    89:da:f0:71:99:b5:80:17:79:ca:89:42:49:27:89:
                    40:a9:7d:9b:9c:91:05:bc:f5:93:48:cc:99:15:25:
                    15:a4:e5:47:f8:97:7d:fa:35
                Exponent: 65537 (0x10001)
        X509v3 extensions:
            X509v3 Basic Constraints: 
                CA:TRUE
            X509v3 Subject Key Identifier: 
                FC:7D:EB:AF:B6:78:78:C5:AD:24:96:C6:51:A5:FF:05:8A:36:29:4A
            X509v3 Authority Key Identifier: 
                keyid:43:81:B9:B4:3F:4B:B7:B0:A6:25:FD:E1:11:9E:FE:A5:D7:7C:AE:56

    Signature Algorithm: sha1WithRSAEncryption
         97:af:61:7f:8f:0e:40:af:f0:ef:27:36:ef:d1:0b:6e:f3:57:
         b4:50:ae:c9:5b:be:2a:19:91:71:54:e1:b7:36:2d:2b:1a:66:
         09:14:80:ea:19:cd:84:b2:6c:d0:56:03:93:5d:2b:81:9d:58:
         8b:a8:80:44:05:e7:42:5a:78:82:b2:22:af:18:ef:02:10:cd:
         d5:3e:48:d0:ff:83:7b:b5:cd:c1:52:44:ec:73:83:93:30:98:
         2b:bc:9e:cc:f7:f3:ad:e2:3a:a9:5d:53:d9:a9:67:47:62:10:
         34:40:49:88:6b:84:54:77:0d:5b:93:d0:8a:a1:1c:cb:ab:5f:
         0f:bb
-----BEGIN CERTIFICATE-----
MIIB8jCCAVugAwIBAgIBCzANBgkqhkiG9w0BAQUFADAWMRQwEgYDVQQDDAtUUklB
RGRlcHRoNjAeFw0xMzA4MjcxNzA4NTJaFw0zMjEwMjYxNzA4NTJaMBYxFDASBgNV
BAMMC1RSSUFEZGVwdGg3MIGfMA0GCSqGSIb3DQEBAQUAA4GNADCBiQKBgQDQzFBQ
+ESuAxhpcqYNcU/0+05elNr78vVAQ6c30mhR+kLSs/oJDg2lRoh5PkzttmNZssct
rguHcRPajuBIwFbBGqCSP4I6cvNrmTbwkypOhkN6qb+BS9XTOona8HGZtYAXecqJ
QkkniUCpfZuckQW89ZNIzJkVJRWk5Uf4l336NQIDAQABo1AwTjAMBgNVHRMEBTAD
AQH/MB0GA1UdDgQWBBT8feuvtnh4xa0klsZRpf8FijYpSjAfBgNVHSMEGDAWgBRD
gbm0P0u3sKYl/eERnv6l13yuVjANBgkqhkiG9w0BAQUFAAOBgQCXr2F/jw5Ar/Dv
Jzbv0Qtu81e0UK7JW74qGZFxVOG3Ni0rGmYJFIDqGc2EsmzQVgOTXSuBnViLqIBE
BedCWniCsiKvGO8CEM3VPkjQ/4N7tc3BUkTsc4OTMJgrvJ7M9/Ot4jqpXVPZqWdH
YhA0QEmIa4RUdw1bk9CKoRzLq18Puw==
-----END CERTIFICATE-----
Certificate:
    Data:
        Version: 3 (0x2)
        Serial Number: 12 (0xc)
    Signature Algorithm: sha1WithRSAEncryption
        Issuer: CN=TRIADdepth7
        Validity
            Not Before: Aug 27 17:09:20 2013 GMT
            Not After : Oct 26 17:09:20 2032 GMT
        Subject: CN=TRIADdepth8
        Subject Public Key Info:
            Public Key Algorithm: rsaEncryption
                Public-Key: (1024 bit)
                Modulus:
                    00:c1:62:7b:54:1e:94:1e:e0:5e:27:85:e2:e2:b1:
                    89:9b:18:3a:3e:c1:09:88:14:3d:1f:b0:ef:19:23:
                    7b:95:a1:4f:d5:12:ad:71:5d:9f:46:53:3d:66:2a:
                    27:0c:2c:3a:75:1b:8e:f9:12:b9:1f:34:f4:d2:0c:
                    7d:81:7b:d4:3c:91:9b:e9:0d:62:3f:1a:80:35:99:
                    36:45:30:f5:1a:22:2b:92:68:6a:c2:e5:da:74:08:
                    55:5d:79:83:f4:1d:70:b7:d3:96:af:27:13:a2:bb:
                    64:61:cf:00:4f:31:94:0c:fd:a6:74:c1:a8:44:93:
                    db:ce:10:7b:fd:bc:aa:25:eb
                Exponent: 65537 (0x10001)
        X509v3 extensions:
            X509v3 Basic Constraints: 
                CA:TRUE
            X509v3 Subject Key Identifier: 
                A6:F3:DB:BC:27:4F:98:B0:90:7B:B4:57:99:E8:E5:41:88:16:F5:17
            X509v3 Authority Key Identifier: 
                keyid:FC:7D:EB:AF:B6:78:78:C5:AD:24:96:C6:51:A5:FF:05:8A:36:29:4A

    Signature Algorithm: sha1WithRSAEncryption
         9e:20:b8:db:c2:c2:a6:f8:ee:22:4f:4a:62:64:8c:be:7b:20:
         3f:1a:54:c2:be:4f:f5:dc:cf:5f:c5:99:95:33:ce:24:32:40:
         d4:a0:0b:3c:a6:4f:4f:07:65:89:8b:71:72:a9:02:9a:42:6a:
         9a:a2:2f:11:f0:96:f8:96:56:18:72:b5:54:ab:49:a3:6e:f2:
         a7:62:0c:88:e3:c9:f1:2d:52:15:83:3a:45:a0:bd:7f:73:6c:
         7f:07:07:f4:27:c5:4e:1a:08:ff:d5:96:fa:02:e5:88:27:53:
         9d:75:cf:ab:8c:ea:41:3c:43:9a:a1:50:87:24:1d:3d:32:07:
         f2:fa
-----BEGIN CERTIFICATE-----
MIIB8jCCAVugAwIBAgIBDDANBgkqhkiG9w0BAQUFADAWMRQwEgYDVQQDDAtUUklB
RGRlcHRoNzAeFw0xMzA4MjcxNzA5MjBaFw0zMjEwMjYxNzA5MjBaMBYxFDASBgNV
BAMMC1RSSUFEZGVwdGg4MIGfMA0GCSqGSIb3DQEBAQUAA4GNADCBiQKBgQDBYntU
HpQe4F4nheLisYmbGDo+wQmIFD0fsO8ZI3uVoU/VEq1xXZ9GUz1mKicMLDp1G475
ErkfNPTSDH2Be9Q8kZvpDWI/GoA1mTZFMPUaIiuSaGrC5dp0CFVdeYP0HXC305av
JxOiu2RhzwBPMZQM/aZ0wahEk9vOEHv9vKol6wIDAQABo1AwTjAMBgNVHRMEBTAD
AQH/MB0GA1UdDgQWBBSm89u8J0+YsJB7tFeZ6OVBiBb1FzAfBgNVHSMEGDAWgBT8
feuvtnh4xa0klsZRpf8FijYpSjANBgkqhkiG9w0BAQUFAAOBgQCeILjbwsKm+O4i
T0piZIy+eyA/GlTCvk/13M9fxZmVM84kMkDUoAs8pk9PB2WJi3FyqQKaQmqaoi8R
8Jb4llYYcrVUq0mjbvKnYgyI48nxLVIVgzpFoL1/c2x/Bwf0J8VOGgj/1Zb6AuWI
J1Oddc+rjOpBPEOaoVCHJB09Mgfy+g==
-----END CERTIFICATE-----
Certificate:
    Data:
        Version: 3 (0x2)
        Serial Number: 13 (0xd)
    Signature Algorithm: sha1WithRSAEncryption
        Issuer: CN=TRIADdepth8
        Validity
            Not Before: Aug 27 17:09:46 2013 GMT
            Not After : Oct 26 17:09:46 2032 GMT
        Subject: CN=TRIADdepth9
        Subject Public Key Info:
            Public Key Algorithm: rsaEncryption
                Public-Key: (1024 bit)
                Modulus:
                    00:c1:74:38:0e:6e:69:96:1c:c9:4b:a3:1f:f6:ef:
                    de:15:a0:cb:7a:f2:bf:2f:b7:f6:4c:54:2e:b7:d4:
                    2b:a0:65:27:55:74:b7:ca:03:1c:47:ed:45:a0:49:
                    a2:87:82:a8:e3:58:8c:32:52:1c:e3:15:e8:bb:32:
                    cc:56:46:f8:d1:53:5a:9a:c3:a8:f4:5f:12:c2:cd:
                    55:8c:10:17:5f:e4:23:9a:ff:b9:fe:76:5e:99:e5:
                    1d:be:5f:0e:fc:6d:cd:37:3c:d2:08:d5:4d:69:43:
                    d6:5f:87:72:02:e9:6e:c4:26:06:90:fe:ac:3a:0b:
                    2a:11:52:12:a5:a0:82:1b:99
                Exponent: 65537 (0x10001)
        X509v3 extensions:
            X509v3 Basic Constraints: 
                CA:TRUE
            X509v3 Subject Key Identifier: 
                0C:A2:C8:F2:79:96:FD:11:B1:C8:8D:15:99:E3:3C:F0:C8:09:DD:CE
            X509v3 Authority Key Identifier: 
                keyid:A6:F3:DB:BC:27:4F:98:B0:90:7B:B4:57:99:E8:E5:41:88:16:F5:17

    Signature Algorithm: sha1WithRSAEncryption
         12:75:47:07:8d:a7:60:85:99:41:63:ee:26:a9:51:c1:5c:e1:
         b7:39:b1:f9:c0:a0:f0:a3:35:fb:06:d8:dc:8a:b2:44:64:df:
         a3:ba:ab:60:25:cc:00:28:ba:3a:8c:de:30:63:66:93:1f:b6:
         a1:93:f3:df:98:6e:8f:11:6b:59:4c:4e:97:bb:c0:33:8c:a7:
         5a:a8:48:74:a2:1a:25:28:25:d9:fb:fd:62:b0:ba:2b:98:42:
         32:de:1e:43:69:ac:11:a6:2d:ef:b4:24:b9:b7:d6:18:5e:59:
         35:ec:1e:aa:2b:63:c4:32:0b:85:d5:81:82:18:b2:67:54:3f:
         f0:ad
-----BEGIN CERTIFICATE-----
MIIB8jCCAVugAwIBAgIBDTANBgkqhkiG9w0BAQUFADAWMRQwEgYDVQQDDAtUUklB
RGRlcHRoODAeFw0xMzA4MjcxNzA5NDZaFw0zMjEwMjYxNzA5NDZaMBYxFDASBgNV
BAMMC1RSSUFEZGVwdGg5MIGfMA0GCSqGSIb3DQEBAQUAA4GNADCBiQKBgQDBdDgO
bmmWHMlLox/2794VoMt68r8vt/ZMVC631CugZSdVdLfKAxxH7UWgSaKHgqjjWIwy
UhzjFei7MsxWRvjRU1qaw6j0XxLCzVWMEBdf5COa/7n+dl6Z5R2+Xw78bc03PNII
1U1pQ9Zfh3IC6W7EJgaQ/qw6CyoRUhKloIIbmQIDAQABo1AwTjAMBgNVHRMEBTAD
AQH/MB0GA1UdDgQWBBQMosjyeZb9EbHIjRWZ4zzwyAndzjAfBgNVHSMEGDAWgBSm
89u8J0+YsJB7tFeZ6OVBiBb1FzANBgkqhkiG9w0BAQUFAAOBgQASdUcHjadghZlB
Y+4mqVHBXOG3ObH5wKDwozX7BtjcirJEZN+juqtgJcwAKLo6jN4wY2aTH7ahk/Pf
mG6PEWtZTE6Xu8AzjKdaqEh0oholKCXZ+/1isLormEIy3h5DaawRpi3vtCS5t9YY
Xlk17B6qK2PEMguF1YGCGLJnVD/wrQ==
-----END CERTIFICATE-----
