Certificate:
    Data:
        Version: 3 (0x2)
        Serial Number: 1362 (0x552)
    Signature Algorithm: ecdsa-with-SHA256
        Issuer: CN=estExampleCA
        Validity
            Not Before: Nov 13 19:55:50 2017 GMT
            Not After : Nov 13 19:55:50 2037 GMT
        Subject: CN=localhost.cisco.com
        Subject Public Key Info:
            Public Key Algorithm: rsaEncryption
                Public-Key: (4096 bit)
                Modulus:
                    00:a2:4a:0e:0b:14:06:4d:f5:3b:53:9c:77:f6:d8:
                    65:c8:51:42:5f:b3:67:63:e8:5b:3c:53:8e:a7:c6:
                    45:2c:09:b1:51:7b:cb:ed:33:ce:da:3d:e4:19:f1:
                    48:b5:03:9e:8c:ba:18:89:45:78:44:e7:71:9e:b0:
                    9c:14:cc:2d:e6:42:24:75:10:26:96:44:cf:1d:9f:
                    bf:6f:14:72:02:15:aa:1e:5a:7d:45:f0:91:6c:07:
                    c4:c2:20:95:1c:09:47:81:e5:29:9e:8a:45:dd:52:
                    a3:fc:22:da:ff:df:bf:30:da:0c:e1:f4:a6:3f:7a:
                    c3:f8:c7:64:06:fc:23:4d:0f:0b:0a:8a:85:c7:fe:
                    c1:1f:55:2f:c7:b5:a8:84:25:3d:fe:c3:90:5e:74:
                    99:1b:fb:7b:21:f5:69:bb:f9:99:7f:3b:f7:5c:5d:
                    9a:43:a9:04:87:cd:7b:0f:53:36:9c:3c:c7:40:9d:
                    02:2b:92:30:87:e2:19:83:fe:a4:0f:f5:b5:62:5e:
                    09:9a:3a:47:86:0f:db:0d:18:91:bc:69:9c:c5:54:
                    c5:38:f1:77:0a:9a:d8:55:c0:55:91:6c:37:36:19:
                    86:59:15:b1:f0:7f:a5:eb:a5:93:0c:48:8a:c4:3c:
                    25:a7:2e:20:d5:3c:cb:e5:42:c0:6b:a3:0a:e2:0f:
                    de:3c:2f:dc:6d:3d:23:d1:6e:3f:1d:dd:e5:00:05:
                    ab:d7:07:0a:ea:b8:6c:22:d3:80:6d:a9:92:f2:a0:
                    fd:a1:50:f6:61:a6:60:f3:9e:7a:a3:f1:d6:c8:2c:
                    bb:01:a8:53:f2:68:39:bb:b7:84:0f:8c:f9:b9:ea:
                    7f:58:33:3d:5d:dc:69:66:07:ef:1a:25:b9:0b:d3:
                    64:82:b0:43:7c:a0:6d:c3:28:05:d9:99:e1:d6:8c:
                    91:f7:98:a0:50:bd:53:5d:a5:a8:4a:dd:84:a2:f8:
                    3c:9a:3b:38:59:00:c8:a1:bc:b7:81:40:49:33:3a:
                    05:4a:75:c1:91:a6:e8:5c:96:ad:33:2e:0c:8d:33:
                    27:51:18:dc:6e:30:52:22:3b:f9:9b:32:93:95:cd:
                    21:79:be:cd:58:a5:1b:e7:07:1b:9e:97:b9:a1:c4:
                    db:98:fe:e5:59:cd:b5:81:b0:a2:b7:80:54:35:4e:
                    be:83:77:80:c9:81:d2:1e:bb:59:cd:ed:71:35:b2:
                    c4:87:3b:84:6f:78:ce:c2:28:58:a5:ad:a5:e7:9e:
                    a4:3e:d1:38:9c:49:30:77:82:f6:20:3c:c2:90:84:
                    a4:b8:1c:fe:8a:f1:47:bc:b7:87:90:bc:a6:fd:ad:
                    2e:0d:a1:3b:26:e0:80:5b:ad:0f:fd:03:c1:2d:ac:
                    1f:6c:6b
                Exponent: 65537 (0x10001)
        X509v3 extensions:
            X509v3 Basic Constraints: 
                CA:FALSE
            X509v3 Key Usage: 
                Digital Signature, Non Repudiation, Key Encipherment
            X509v3 Subject Alternative Name: 
                DNS:*.yahoo.com
    Signature Algorithm: ecdsa-with-SHA256
         30:45:02:21:00:8e:49:23:8e:fa:66:03:67:29:c9:ee:5b:c0:
         be:f3:c0:9e:5a:5c:c2:0f:74:92:93:f7:8d:5a:07:90:55:77:
         5c:02:20:6b:c0:fb:17:b2:fd:04:92:96:0d:08:94:32:da:d9:
         25:e9:18:49:08:02:ca:09:9b:fe:2c:d0:6d:bb:5c:70:81
-----BEGIN CERTIFICATE-----
MIIDIjCCAsigAwIBAgICBVIwCgYIKoZIzj0EAwIwFzEVMBMGA1UEAxMMZXN0RXhh
bXBsZUNBMB4XDTE3MTExMzE5NTU1MFoXDTM3MTExMzE5NTU1MFowHjEcMBoGA1UE
AwwTbG9jYWxob3N0LmNpc2NvLmNvbTCCAiIwDQYJKoZIhvcNAQEBBQADggIPADCC
AgoCggIBAKJKDgsUBk31O1Ocd/bYZchRQl+zZ2PoWzxTjqfGRSwJsVF7y+0zzto9
5BnxSLUDnoy6GIlFeETncZ6wnBTMLeZCJHUQJpZEzx2fv28UcgIVqh5afUXwkWwH
xMIglRwJR4HlKZ6KRd1So/wi2v/fvzDaDOH0pj96w/jHZAb8I00PCwqKhcf+wR9V
L8e1qIQlPf7DkF50mRv7eyH1abv5mX8791xdmkOpBIfNew9TNpw8x0CdAiuSMIfi
GYP+pA/1tWJeCZo6R4YP2w0YkbxpnMVUxTjxdwqa2FXAVZFsNzYZhlkVsfB/peul
kwxIisQ8JacuINU8y+VCwGujCuIP3jwv3G09I9FuPx3d5QAFq9cHCuq4bCLTgG2p
kvKg/aFQ9mGmYPOeeqPx1sgsuwGoU/JoObu3hA+M+bnqf1gzPV3caWYH7xoluQvT
ZIKwQ3ygbcMoBdmZ4daMkfeYoFC9U12lqErdhKL4PJo7OFkAyKG8t4FASTM6BUp1
wZGm6FyWrTMuDI0zJ1EY3G4wUiI7+Zsyk5XNIXm+zVilG+cHG56XuaHE25j+5VnN
tYGworeAVDVOvoN3gMmB0h67Wc3tcTWyxIc7hG94zsIoWKWtpeeepD7ROJxJMHeC
9iA8wpCEpLgc/orxR7y3h5C8pv2tLg2hOybggFutD/0DwS2sH2xrAgMBAAGjMjAw
MAkGA1UdEwQCMAAwCwYDVR0PBAQDAgXgMBYGA1UdEQQPMA2CCyoueWFob28uY29t
MAoGCCqGSM49BAMCA0gAMEUCIQCOSSOO+mYDZynJ7lvAvvPAnlpcwg90kpP3jVoH
kFV3XAIga8D7F7L9BJKWDQiUMtrZJekYSQgCygmb/izQbbtccIE=
-----END CERTIFICATE-----
