Certificate:
    Data:
        Version: 3 (0x2)
        Serial Number: 1355 (0x54b)
    Signature Algorithm: ecdsa-with-SHA256
        Issuer: CN=estExampleCA
        Validity
            Not Before: Nov 13 19:36:00 2017 GMT
            Not After : Nov 13 19:36:00 2037 GMT
        Subject: CN=localhost.cisco.com
        Subject Public Key Info:
            Public Key Algorithm: rsaEncryption
                Public-Key: (4096 bit)
                Modulus:
                    00:a9:37:ec:5d:09:90:d3:d5:a1:2a:bc:d2:28:77:
                    fd:d6:4d:07:a8:a1:f6:c0:65:3f:de:4a:8c:36:16:
                    61:9e:93:9f:e8:41:92:d7:80:94:1d:57:4e:84:b1:
                    d6:82:0b:c9:4e:f9:25:b2:f0:d6:43:e9:fd:95:25:
                    93:77:31:ef:c6:ed:df:4f:92:bd:c7:86:95:bc:6e:
                    8f:55:e4:4c:1a:ac:99:2d:a3:b0:d1:f6:f6:08:f9:
                    56:f6:fa:26:e3:54:89:80:4e:95:3a:fb:48:c4:90:
                    05:50:6d:6d:5b:d7:e6:f1:1b:6e:ce:ee:bf:60:b0:
                    64:1a:d5:59:62:7c:d8:13:fc:e0:bb:aa:27:ba:cc:
                    0c:ee:0d:2d:a1:e8:22:9b:82:aa:db:9a:7c:ec:32:
                    4a:68:10:e9:84:12:64:8b:77:85:d3:c0:aa:84:90:
                    70:ea:cf:4c:26:20:a1:d1:e9:b4:ae:78:aa:fa:2e:
                    1a:3c:68:a6:9b:0b:80:ff:3f:11:1f:46:4a:41:0a:
                    75:76:d2:b7:79:ee:56:6f:b6:0a:84:fb:a6:26:51:
                    b1:44:78:49:60:23:48:6f:51:a0:57:29:ab:b5:20:
                    95:19:75:22:75:b4:a9:6c:b3:42:b4:9a:9a:76:fa:
                    48:72:65:b4:15:ab:f5:83:ca:73:cc:79:55:4b:73:
                    29:f2:b0:c5:00:e6:ac:6b:f5:15:47:a5:36:c5:a3:
                    b6:cc:0b:80:2a:2c:98:d5:ac:b7:b3:99:e6:21:fb:
                    41:e4:af:4a:d6:ab:22:36:12:55:26:19:e2:ff:1d:
                    ec:0d:71:e9:b5:8a:05:29:89:4e:a5:0d:57:6e:09:
                    53:8d:86:0e:17:1b:64:23:09:61:09:bd:f3:93:6f:
                    66:b2:11:a7:3e:96:4f:92:9c:cd:dc:13:43:71:66:
                    2f:ee:ef:93:18:ec:b7:b3:60:fd:ef:5e:d0:d0:7b:
                    75:ff:62:8e:aa:8a:49:44:f2:cb:07:bb:ab:39:d5:
                    bf:83:30:2e:d3:51:f3:b0:36:15:0e:59:7d:fb:29:
                    52:1c:4d:b4:45:8d:e8:95:2a:fa:da:ee:3f:ed:06:
                    cf:35:2b:35:09:2a:a2:d6:8d:56:3d:16:e7:6e:0c:
                    c8:48:ff:ec:7b:13:06:98:6d:ca:e7:a9:4f:c9:cc:
                    0f:ed:dd:85:3b:3a:10:1f:6f:50:d6:6b:90:34:35:
                    f3:a6:16:c7:f2:e4:45:44:bb:46:94:ba:d0:b9:7c:
                    df:26:3e:0f:df:d3:e7:c0:f3:a0:85:9a:b8:a6:36:
                    9d:4b:92:7f:9a:72:b7:96:d1:d1:e6:bb:61:ea:67:
                    f2:d1:48:1f:ad:20:fd:c8:35:09:76:f3:37:fa:48:
                    e7:2b:df
                Exponent: 65537 (0x10001)
        X509v3 extensions:
            X509v3 Basic Constraints: 
                CA:FALSE
            X509v3 Key Usage: 
                Digital Signature, Non Repudiation, Key Encipherment
            X509v3 Subject Alternative Name: 
                IP Address:192.168.50.65
    Signature Algorithm: ecdsa-with-SHA256
         30:45:02:20:6f:d4:0b:5b:68:41:20:a8:ed:4e:0e:d4:5e:af:
         ea:12:9f:2c:bb:85:1a:12:1d:1a:38:77:18:51:79:61:4e:b0:
         02:21:00:cd:9e:fd:af:40:59:dd:f2:22:5a:b8:30:07:c5:76:
         de:e5:17:62:a0:7e:6a:8b:b6:df:06:1d:e2:f8:b1:a0:58
-----BEGIN CERTIFICATE-----
MIIDGzCCAsGgAwIBAgICBUswCgYIKoZIzj0EAwIwFzEVMBMGA1UEAxMMZXN0RXhh
bXBsZUNBMB4XDTE3MTExMzE5MzYwMFoXDTM3MTExMzE5MzYwMFowHjEcMBoGA1UE
AwwTbG9jYWxob3N0LmNpc2NvLmNvbTCCAiIwDQYJKoZIhvcNAQEBBQADggIPADCC
AgoCggIBAKk37F0JkNPVoSq80ih3/dZNB6ih9sBlP95KjDYWYZ6Tn+hBkteAlB1X
ToSx1oILyU75JbLw1kPp/ZUlk3cx78bt30+SvceGlbxuj1XkTBqsmS2jsNH29gj5
Vvb6JuNUiYBOlTr7SMSQBVBtbVvX5vEbbs7uv2CwZBrVWWJ82BP84LuqJ7rMDO4N
LaHoIpuCqtuafOwySmgQ6YQSZIt3hdPAqoSQcOrPTCYgodHptK54qvouGjxoppsL
gP8/ER9GSkEKdXbSt3nuVm+2CoT7piZRsUR4SWAjSG9RoFcpq7UglRl1InW0qWyz
QrSamnb6SHJltBWr9YPKc8x5VUtzKfKwxQDmrGv1FUelNsWjtswLgCosmNWst7OZ
5iH7QeSvStarIjYSVSYZ4v8d7A1x6bWKBSmJTqUNV24JU42GDhcbZCMJYQm985Nv
ZrIRpz6WT5KczdwTQ3FmL+7vkxjst7Ng/e9e0NB7df9ijqqKSUTyywe7qznVv4Mw
LtNR87A2FQ5ZffspUhxNtEWN6JUq+truP+0GzzUrNQkqotaNVj0W524MyEj/7HsT
BphtyuepT8nMD+3dhTs6EB9vUNZrkDQ186YWx/LkRUS7RpS60Ll83yY+D9/T58Dz
oIWauKY2nUuSf5pyt5bR0ea7Yepn8tFIH60g/cg1CXbzN/pI5yvfAgMBAAGjKzAp
MAkGA1UdEwQCMAAwCwYDVR0PBAQDAgXgMA8GA1UdEQQIMAaHBMCoMkEwCgYIKoZI
zj0EAwIDSAAwRQIgb9QLW2hBIKjtTg7UXq/qEp8su4UaEh0aOHcYUXlhTrACIQDN
nv2vQFnd8iJauDAHxXbe5RdioH5qi7bfBh3i+LGgWA==
-----END CERTIFICATE-----
