Certificate:
    Data:
        Version: 3 (0x2)
        Serial Number: 1352 (0x548)
    Signature Algorithm: ecdsa-with-SHA256
        Issuer: CN=estExampleCA
        Validity
            Not Before: Nov 13 18:41:33 2017 GMT
            Not After : Nov 13 18:41:33 2037 GMT
        Subject: CN=tester
        Subject Public Key Info:
            Public Key Algorithm: rsaEncryption
                Public-Key: (4096 bit)
                Modulus:
                    00:9f:03:c9:11:b2:a0:f4:7d:4e:83:29:07:6e:97:
                    db:c9:75:1e:42:dc:a9:41:ea:c5:c5:fc:c7:e7:84:
                    47:28:d5:58:be:d6:50:cc:d7:d4:61:0a:26:f8:b3:
                    e2:85:aa:4f:01:d2:9b:4b:b8:5b:f0:49:8b:59:b3:
                    81:1f:83:a8:fc:3b:ab:74:e0:9c:89:9f:ec:5b:85:
                    01:51:7a:3b:13:cb:97:09:24:04:f1:4e:17:b9:e5:
                    f8:14:0a:f5:9b:9a:e3:87:de:7e:90:bf:f5:b3:ee:
                    a5:79:c4:74:e1:80:9d:32:55:dd:51:32:54:8e:0a:
                    a1:22:50:dd:5b:97:57:82:c2:80:2c:89:66:6a:8f:
                    2c:9c:f5:1f:19:10:4b:9d:35:94:f5:b9:9b:5c:4f:
                    6f:3f:3b:c5:92:66:7d:02:33:ac:ec:46:a7:1b:83:
                    62:8c:b0:ad:66:2d:35:9a:f4:a3:7d:25:b8:2c:04:
                    a3:10:dd:46:3c:28:d4:49:d6:5c:53:8a:21:4a:07:
                    95:c5:92:73:8a:85:34:4c:e4:c0:a2:4f:f0:fd:77:
                    04:ea:49:4d:d8:75:c5:b5:75:9c:2b:01:d9:53:98:
                    af:b1:16:94:27:66:36:a4:71:cd:76:f9:e4:bf:37:
                    fd:2e:f8:e4:40:ba:03:9c:4f:38:48:b0:45:52:60:
                    a6:c7:95:91:82:a9:83:aa:e8:6a:22:2c:8c:a4:98:
                    15:bd:08:67:b7:82:17:61:1e:3b:8e:2d:f9:be:0b:
                    10:1f:0e:5d:6d:86:96:8a:10:5c:1f:03:1f:d6:a9:
                    8f:f2:5b:83:1b:65:7e:2a:1c:8b:e8:dc:c2:3b:23:
                    a6:c9:44:84:3c:61:87:7a:c5:ae:26:46:ee:6f:f6:
                    46:b2:ce:f2:2c:72:8a:b0:19:85:5a:58:2a:17:27:
                    1f:c4:ac:03:e9:6d:dc:3c:54:de:bf:13:23:bb:88:
                    f5:b3:33:1e:14:68:6d:4c:e1:1a:47:40:a0:20:94:
                    07:c2:39:18:3c:a8:79:64:50:5b:78:13:c1:49:7d:
                    96:06:8a:37:c7:8e:19:74:15:89:a7:57:38:c3:f3:
                    85:ff:1a:1b:fb:14:7b:69:9d:8f:5b:82:56:90:41:
                    f0:b0:ae:63:10:b4:f2:46:bc:e4:76:ca:98:f4:8d:
                    99:87:07:8f:aa:64:ad:e0:e6:36:38:42:0b:c5:5c:
                    63:2f:e1:57:bc:be:cd:30:75:4a:14:8f:b7:c9:01:
                    57:f4:1f:b0:05:b6:59:63:fd:62:15:02:e3:46:6e:
                    da:80:e4:73:9e:74:9c:0e:fb:58:e8:6e:50:da:21:
                    d0:7d:c5:68:55:12:69:ed:2a:af:b4:4d:e6:5f:cd:
                    c9:22:23
                Exponent: 65537 (0x10001)
        X509v3 extensions:
            X509v3 Basic Constraints: 
                CA:FALSE
            X509v3 Key Usage: 
                Digital Signature, Non Repudiation, Key Encipherment
            X509v3 Subject Alternative Name: 
                DNS:localhost.cisco.com
    Signature Algorithm: ecdsa-with-SHA256
         30:45:02:21:00:aa:32:4d:44:8f:4c:b7:d5:25:76:09:7c:88:
         12:cc:1c:38:03:12:44:29:41:fa:a5:c3:5f:07:67:60:e7:29:
         0b:02:20:1a:28:6e:b2:7b:8f:73:69:b7:bc:0b:dd:69:22:0e:
         e7:17:5a:9d:99:5e:14:fc:49:30:66:1a:a0:87:38:8c:85
-----BEGIN CERTIFICATE-----
MIIDHTCCAsOgAwIBAgICBUgwCgYIKoZIzj0EAwIwFzEVMBMGA1UEAxMMZXN0RXhh
bXBsZUNBMB4XDTE3MTExMzE4NDEzM1oXDTM3MTExMzE4NDEzM1owETEPMA0GA1UE
AwwGdGVzdGVyMIICIjANBgkqhkiG9w0BAQEFAAOCAg8AMIICCgKCAgEAnwPJEbKg
9H1OgykHbpfbyXUeQtypQerFxfzH54RHKNVYvtZQzNfUYQom+LPihapPAdKbS7hb
8EmLWbOBH4Oo/DurdOCciZ/sW4UBUXo7E8uXCSQE8U4XueX4FAr1m5rjh95+kL/1
s+6lecR04YCdMlXdUTJUjgqhIlDdW5dXgsKALIlmao8snPUfGRBLnTWU9bmbXE9v
PzvFkmZ9AjOs7EanG4NijLCtZi01mvSjfSW4LASjEN1GPCjUSdZcU4ohSgeVxZJz
ioU0TOTAok/w/XcE6klN2HXFtXWcKwHZU5ivsRaUJ2Y2pHHNdvnkvzf9LvjkQLoD
nE84SLBFUmCmx5WRgqmDquhqIiyMpJgVvQhnt4IXYR47ji35vgsQHw5dbYaWihBc
HwMf1qmP8luDG2V+KhyL6NzCOyOmyUSEPGGHesWuJkbub/ZGss7yLHKKsBmFWlgq
FycfxKwD6W3cPFTevxMju4j1szMeFGhtTOEaR0CgIJQHwjkYPKh5ZFBbeBPBSX2W
Boo3x44ZdBWJp1c4w/OF/xob+xR7aZ2PW4JWkEHwsK5jELTyRrzkdsqY9I2ZhweP
qmSt4OY2OEILxVxjL+FXvL7NMHVKFI+3yQFX9B+wBbZZY/1iFQLjRm7agORznnSc
DvtY6G5Q2iHQfcVoVRJp7SqvtE3mX83JIiMCAwEAAaM6MDgwCQYDVR0TBAIwADAL
BgNVHQ8EBAMCBeAwHgYDVR0RBBcwFYITbG9jYWxob3N0LmNpc2NvLmNvbTAKBggq
hkjOPQQDAgNIADBFAiEAqjJNRI9Mt9Uldgl8iBLMHDgDEkQpQfqlw18HZ2DnKQsC
IBoobrJ7j3Npt7wL3WkiDucXWp2ZXhT8STBmGqCHOIyF
-----END CERTIFICATE-----
