Certificate:
    Data:
        Version: 3 (0x2)
        Serial Number: 1357 (0x54d)
    Signature Algorithm: ecdsa-with-SHA256
        Issuer: CN=estExampleCA
        Validity
            Not Before: Nov 13 19:43:36 2017 GMT
            Not After : Nov 13 19:43:36 2037 GMT
        Subject: CN=localhost.cisco.com
        Subject Public Key Info:
            Public Key Algorithm: rsaEncryption
                Public-Key: (4096 bit)
                Modulus:
                    00:b3:f5:88:58:87:76:3a:6c:62:af:05:22:d5:9c:
                    e1:ce:1a:a5:35:d5:28:9d:ec:24:50:c4:58:bb:d3:
                    bd:52:30:15:37:c0:7f:03:58:10:e0:8f:75:fe:09:
                    61:0c:69:50:73:67:b5:4c:e4:0a:36:1f:a8:99:c9:
                    8c:16:5c:27:98:04:bf:a2:d1:11:9e:cb:e4:79:cb:
                    47:72:b7:27:f0:31:c1:9b:49:3a:82:c3:39:65:a5:
                    db:18:d8:c5:8c:75:60:af:df:eb:e4:b4:a4:bc:8d:
                    f3:84:62:b5:8a:3c:6b:6b:68:50:36:fa:62:0c:ca:
                    0c:27:1e:99:1e:4d:6e:23:42:a2:0b:9d:00:e1:15:
                    b5:46:8a:f9:0f:dc:55:a2:b3:c2:dc:29:0e:85:93:
                    3b:74:d6:75:4e:a1:05:89:08:87:ab:da:87:0c:7d:
                    05:9b:31:9c:b9:a0:8e:64:2d:a7:8a:6c:be:2a:1f:
                    e1:6b:1b:0d:d8:74:db:39:6d:8a:b0:91:52:a1:35:
                    f4:4a:8f:68:d2:27:6f:70:4d:21:08:11:4e:be:0a:
                    0e:1c:1e:e9:b2:f9:46:1a:c2:d0:c4:8a:15:21:ac:
                    ae:be:f7:a0:d2:88:3b:d3:b4:8d:ad:1b:26:55:48:
                    07:3a:c2:6f:d8:43:ad:16:75:d1:d9:97:66:b0:d4:
                    39:d2:94:ce:3c:00:f8:4b:d7:90:46:92:75:05:75:
                    a6:81:40:33:4f:92:4c:70:35:06:ed:77:96:57:bb:
                    c0:a8:f5:bf:98:89:40:b9:ca:7e:c0:80:10:e4:00:
                    2d:d5:b2:64:77:3e:86:e2:dc:37:67:63:4b:e6:87:
                    8d:f0:4a:23:d2:99:27:2f:94:0f:03:6c:56:af:5f:
                    e5:0c:8e:64:58:c2:56:07:30:20:71:49:4d:90:69:
                    03:9e:c0:a8:39:3e:6b:3b:86:55:59:f9:cb:f0:d2:
                    d2:58:70:5a:51:2c:c0:ef:0f:81:4f:d0:61:f1:e6:
                    ff:86:a8:ad:31:0e:e8:f5:e4:ed:77:57:04:2c:b8:
                    41:e2:07:89:f4:fb:22:10:e3:03:14:e8:46:f8:ae:
                    b4:26:e1:3f:13:06:ea:b0:e5:c9:a6:d5:f1:e2:e5:
                    9a:f4:b1:d7:ac:35:fa:10:bc:3c:8f:78:85:50:ab:
                    e0:03:6c:fb:16:e2:38:28:66:12:4c:fd:8c:e9:c8:
                    91:d4:8c:f7:43:c9:02:20:90:44:5c:47:cd:b1:af:
                    ef:00:ea:71:e5:7e:31:4c:da:7d:a6:39:41:24:2c:
                    9b:b6:2e:8b:f5:2a:47:2c:3a:3b:a3:cc:de:00:7c:
                    c3:6d:dd:9d:f7:0e:5f:c9:6c:ca:0c:88:7e:29:79:
                    8a:5c:c3
                Exponent: 65537 (0x10001)
        X509v3 extensions:
            X509v3 Basic Constraints: 
                CA:FALSE
            X509v3 Key Usage: 
                Digital Signature, Non Repudiation, Key Encipherment
            X509v3 Subject Alternative Name: 
                IP Address:127.0.0.1
    Signature Algorithm: ecdsa-with-SHA256
         30:45:02:20:2d:b5:21:c5:c0:a0:10:8b:fc:dc:ef:4d:42:e7:
         21:e1:6a:27:d8:2b:df:cb:cb:b3:49:41:61:6a:f7:34:9d:7e:
         02:21:00:fa:a9:b3:e9:da:5d:6a:30:fd:ff:61:10:62:c3:2e:
         a3:a2:8e:d5:94:94:0d:50:f9:7e:e3:f2:57:b5:6e:3e:bf
-----BEGIN CERTIFICATE-----
MIIDGzCCAsGgAwIBAgICBU0wCgYIKoZIzj0EAwIwFzEVMBMGA1UEAxMMZXN0RXhh
bXBsZUNBMB4XDTE3MTExMzE5NDMzNloXDTM3MTExMzE5NDMzNlowHjEcMBoGA1UE
AwwTbG9jYWxob3N0LmNpc2NvLmNvbTCCAiIwDQYJKoZIhvcNAQEBBQADggIPADCC
AgoCggIBALP1iFiHdjpsYq8FItWc4c4apTXVKJ3sJFDEWLvTvVIwFTfAfwNYEOCP
df4JYQxpUHNntUzkCjYfqJnJjBZcJ5gEv6LREZ7L5HnLR3K3J/AxwZtJOoLDOWWl
2xjYxYx1YK/f6+S0pLyN84RitYo8a2toUDb6YgzKDCcemR5NbiNCogudAOEVtUaK
+Q/cVaKzwtwpDoWTO3TWdU6hBYkIh6vahwx9BZsxnLmgjmQtp4psviof4WsbDdh0
2zltirCRUqE19EqPaNInb3BNIQgRTr4KDhwe6bL5RhrC0MSKFSGsrr73oNKIO9O0
ja0bJlVIBzrCb9hDrRZ10dmXZrDUOdKUzjwA+EvXkEaSdQV1poFAM0+STHA1Bu13
lle7wKj1v5iJQLnKfsCAEOQALdWyZHc+huLcN2djS+aHjfBKI9KZJy+UDwNsVq9f
5QyOZFjCVgcwIHFJTZBpA57AqDk+azuGVVn5y/DS0lhwWlEswO8PgU/QYfHm/4ao
rTEO6PXk7XdXBCy4QeIHifT7IhDjAxToRviutCbhPxMG6rDlyabV8eLlmvSx16w1
+hC8PI94hVCr4ANs+xbiOChmEkz9jOnIkdSM90PJAiCQRFxHzbGv7wDqceV+MUza
faY5QSQsm7Yui/UqRyw6O6PM3gB8w23dnfcOX8lsygyIfil5ilzDAgMBAAGjKzAp
MAkGA1UdEwQCMAAwCwYDVR0PBAQDAgXgMA8GA1UdEQQIMAaHBH8AAAEwCgYIKoZI
zj0EAwIDSAAwRQIgLbUhxcCgEIv83O9NQuch4Won2Cvfy8uzSUFhavc0nX4CIQD6
qbPp2l1qMP3/YRBiwy6joo7VlJQNUPl+4/JXtW4+vw==
-----END CERTIFICATE-----
