Certificate:
    Data:
        Version: 3 (0x2)
        Serial Number: 1360 (0x550)
    Signature Algorithm: ecdsa-with-SHA256
        Issuer: CN=estExampleCA
        Validity
            Not Before: Nov 13 19:52:45 2017 GMT
            Not After : Nov 13 19:52:45 2037 GMT
        Subject: CN=localhost.cisco.com
        Subject Public Key Info:
            Public Key Algorithm: rsaEncryption
                Public-Key: (4096 bit)
                Modulus:
                    00:92:6d:bf:2a:c6:c7:9c:a0:a1:a9:45:49:93:74:
                    56:0e:25:ea:d6:b5:72:54:c2:ea:9c:7c:5f:b5:da:
                    2d:6d:cd:a0:15:a1:d3:e8:9a:31:3b:5e:16:b5:e2:
                    2c:e1:21:24:03:e8:d5:96:9f:93:88:90:e6:24:21:
                    7f:89:01:15:23:46:01:e2:4b:8b:71:34:f8:ae:74:
                    c1:b4:14:56:3f:d8:2e:70:a1:71:fa:1e:40:45:9c:
                    9d:c2:f5:93:91:21:c8:fe:c4:de:08:5e:ba:53:d3:
                    bd:f7:e8:be:ed:78:55:aa:dd:f0:55:52:10:a9:8a:
                    8c:ae:d3:0c:d4:bd:05:e3:f1:2e:b8:43:d2:90:6d:
                    83:ae:ac:85:2f:00:29:4e:28:fb:3f:e6:c5:db:20:
                    93:c4:2c:93:44:4f:25:21:8e:8d:29:33:a4:95:64:
                    98:7a:ed:4d:14:a9:f1:29:0b:fe:58:14:83:6d:0b:
                    89:eb:e5:5b:33:1b:10:84:ec:f8:f2:45:64:24:6c:
                    ef:5b:3d:ad:47:ef:6b:37:fb:ca:5f:3b:1d:ac:af:
                    47:2d:49:ba:b8:fc:1d:42:32:9d:58:71:c9:49:59:
                    d3:57:60:ad:d3:ad:1a:63:03:af:f2:b4:a7:4c:a4:
                    51:37:35:e4:08:d4:82:ac:ed:ae:26:8d:a5:fb:c1:
                    6f:87:42:41:2b:d3:0b:c9:0c:1b:cf:ff:d4:0b:d6:
                    3f:8c:04:78:d1:6b:83:19:34:54:00:88:16:b9:b4:
                    56:2f:4a:fa:3e:cd:14:b8:e5:65:7b:db:73:df:ab:
                    b9:73:f0:00:51:ed:7c:8b:be:9f:2b:0e:1b:74:85:
                    ad:2d:a0:d9:eb:7c:13:0a:9e:cc:b9:35:a3:6c:ed:
                    f3:57:f8:4f:9c:67:6b:c5:53:66:48:7d:dc:b7:64:
                    da:c8:af:37:2b:46:bf:62:f4:19:65:9b:44:a2:ee:
                    db:ea:24:28:b7:e8:6d:55:c2:e9:89:c6:52:29:17:
                    09:76:a2:8d:3b:cd:ef:6e:ab:28:d5:1b:de:83:10:
                    cf:d0:8c:79:85:35:43:60:9a:d5:9f:2a:d5:40:26:
                    49:76:d8:ce:28:08:5a:11:31:21:77:4c:52:a9:49:
                    38:b2:25:c9:1f:6b:3f:ed:67:09:9c:cd:e0:38:fb:
                    cc:93:c3:5d:ff:80:c8:7a:a2:af:b2:e0:87:0b:ca:
                    1a:a4:66:4e:e0:c7:c0:b9:7f:20:98:b6:ed:33:25:
                    31:f8:e7:6b:4c:1a:b3:11:ff:79:74:97:96:61:e1:
                    2f:14:fa:73:43:07:3d:8b:d1:1b:ae:77:46:d6:cd:
                    06:e4:d4:40:85:e9:46:12:ac:d0:a4:f4:7f:bb:33:
                    b0:57:f1
                Exponent: 65537 (0x10001)
        X509v3 extensions:
            X509v3 Basic Constraints: 
                CA:FALSE
            X509v3 Key Usage: 
                Digital Signature, Non Repudiation, Key Encipherment
            X509v3 Subject Alternative Name: 
                DNS:*.cisco.com
    Signature Algorithm: ecdsa-with-SHA256
         30:44:02:20:4b:a8:4c:c6:d2:59:35:40:72:22:01:37:65:2c:
         d1:a2:bd:7b:f8:48:cf:0a:3e:bc:ad:65:7a:14:61:70:a3:5c:
         02:20:56:91:75:d1:8e:a4:f6:19:d6:64:a5:16:d7:79:1f:a2:
         5a:27:ae:ae:75:bb:c6:19:ad:3b:f2:08:f9:4b:87:4a
-----BEGIN CERTIFICATE-----
MIIDITCCAsigAwIBAgICBVAwCgYIKoZIzj0EAwIwFzEVMBMGA1UEAxMMZXN0RXhh
bXBsZUNBMB4XDTE3MTExMzE5NTI0NVoXDTM3MTExMzE5NTI0NVowHjEcMBoGA1UE
AwwTbG9jYWxob3N0LmNpc2NvLmNvbTCCAiIwDQYJKoZIhvcNAQEBBQADggIPADCC
AgoCggIBAJJtvyrGx5ygoalFSZN0Vg4l6ta1clTC6px8X7XaLW3NoBWh0+iaMTte
FrXiLOEhJAPo1Zafk4iQ5iQhf4kBFSNGAeJLi3E0+K50wbQUVj/YLnChcfoeQEWc
ncL1k5EhyP7E3gheulPTvffovu14Vard8FVSEKmKjK7TDNS9BePxLrhD0pBtg66s
hS8AKU4o+z/mxdsgk8Qsk0RPJSGOjSkzpJVkmHrtTRSp8SkL/lgUg20LievlWzMb
EITs+PJFZCRs71s9rUfvazf7yl87HayvRy1Jurj8HUIynVhxyUlZ01dgrdOtGmMD
r/K0p0ykUTc15AjUgqztriaNpfvBb4dCQSvTC8kMG8//1AvWP4wEeNFrgxk0VACI
Frm0Vi9K+j7NFLjlZXvbc9+ruXPwAFHtfIu+nysOG3SFrS2g2et8EwqezLk1o2zt
81f4T5xna8VTZkh93Ldk2sivNytGv2L0GWWbRKLu2+okKLfobVXC6YnGUikXCXai
jTvN726rKNUb3oMQz9CMeYU1Q2Ca1Z8q1UAmSXbYzigIWhExIXdMUqlJOLIlyR9r
P+1nCZzN4Dj7zJPDXf+AyHqir7LghwvKGqRmTuDHwLl/IJi27TMlMfjna0wasxH/
eXSXlmHhLxT6c0MHPYvRG653RtbNBuTUQIXpRhKs0KT0f7szsFfxAgMBAAGjMjAw
MAkGA1UdEwQCMAAwCwYDVR0PBAQDAgXgMBYGA1UdEQQPMA2CCyouY2lzY28uY29t
MAoGCCqGSM49BAMCA0cAMEQCIEuoTMbSWTVAciIBN2Us0aK9e/hIzwo+vK1lehRh
cKNcAiBWkXXRjqT2GdZkpRbXeR+iWieurnW7xhmtO/II+UuHSg==
-----END CERTIFICATE-----
