Certificate:
    Data:
        Version: 3 (0x2)
        Serial Number: 1354 (0x54a)
    Signature Algorithm: ecdsa-with-SHA256
        Issuer: CN=estExampleCA
        Validity
            Not Before: Nov 13 19:24:09 2017 GMT
            Not After : Nov 13 19:24:09 2037 GMT
        Subject: CN=localhost.cisco.com
        Subject Public Key Info:
            Public Key Algorithm: rsaEncryption
                Public-Key: (4096 bit)
                Modulus:
                    00:a4:0e:9f:67:6c:73:e9:3d:fe:99:cc:bc:a5:2a:
                    c4:48:14:5b:57:63:a4:69:20:38:a3:6a:de:e9:72:
                    66:17:a0:80:77:5a:de:16:a9:b3:0b:c4:b2:03:37:
                    1a:69:3f:64:92:82:de:8a:33:7a:e8:dc:13:0e:fe:
                    9c:fc:bc:43:1d:6f:42:39:10:f2:30:4d:0e:a3:23:
                    11:fc:41:e4:42:ed:f9:5a:9d:c7:a2:06:02:29:78:
                    76:fc:8a:4a:1a:2d:8f:42:4e:a6:2c:04:5d:db:1e:
                    b3:fb:64:f1:4d:7e:07:4c:37:95:c7:2b:eb:98:8e:
                    b7:b7:1b:8f:7a:ed:6c:8c:3d:65:d5:9c:59:68:c8:
                    3c:ad:35:5a:22:6b:91:2b:96:7b:04:02:f5:02:cd:
                    1e:78:a3:63:ca:47:d3:b6:2f:7d:b5:78:31:3d:c1:
                    6d:b4:e1:f4:ed:e7:a4:34:99:20:7f:61:e8:92:77:
                    e0:f5:5a:7d:cf:e1:87:d7:52:d2:f9:e1:bd:ca:73:
                    fa:17:c5:2a:53:84:5d:6f:71:c1:35:8d:80:b6:1f:
                    52:7e:2f:61:49:8f:89:a8:94:a2:2e:59:07:12:99:
                    91:ab:e0:7a:53:a7:0b:fd:15:d3:c4:68:6d:d8:dd:
                    01:4d:73:28:5f:f9:66:e9:b0:bc:6f:f4:9a:d5:89:
                    18:94:e2:1b:10:01:0d:38:56:6d:d0:52:e9:77:6f:
                    ca:1c:5e:4f:2d:89:1f:5e:6a:0d:14:fe:d8:e9:3b:
                    c1:5c:2a:fe:27:9a:02:b5:46:f1:6e:a4:15:3b:d4:
                    3e:6f:97:91:b9:c3:da:3f:69:d6:d7:4d:17:d5:a3:
                    cb:46:95:74:dc:63:ec:28:1c:87:40:0f:93:24:98:
                    da:51:33:73:ad:6b:97:66:06:b9:02:83:db:45:c8:
                    de:a7:e4:d2:d6:94:43:fd:07:3e:d1:93:f7:2a:30:
                    59:ed:68:80:b4:2f:ab:46:70:c1:a4:f2:36:6b:5f:
                    09:23:88:7a:4f:86:c3:5e:00:99:61:62:d9:11:ab:
                    6d:7b:82:19:a6:91:0d:2c:05:e6:31:08:1b:05:32:
                    53:81:31:39:00:df:93:7b:d4:46:ec:01:e6:47:e4:
                    7b:81:51:d9:f1:09:4f:72:e4:dd:10:7d:d7:a9:28:
                    46:91:4d:e2:f8:34:20:62:5c:97:97:44:d9:dd:7f:
                    d5:f3:2b:eb:4b:7a:f4:b9:bc:2f:34:02:82:07:de:
                    63:b8:3a:3f:24:94:71:cd:69:d3:43:ee:fc:73:e3:
                    55:07:fc:4d:fd:d3:ea:5f:22:b2:61:99:bd:2f:b8:
                    7a:e5:aa:ba:20:2e:31:26:3d:2b:fe:9f:e3:3e:f5:
                    1b:27:73
                Exponent: 65537 (0x10001)
        X509v3 extensions:
            X509v3 Basic Constraints: 
                CA:FALSE
            X509v3 Key Usage: 
                Digital Signature, Non Repudiation, Key Encipherment
            X509v3 Subject Alternative Name: 
                DNS:roundhouse.cisco.com
    Signature Algorithm: ecdsa-with-SHA256
         30:44:02:20:22:b5:dd:85:20:7b:68:6d:eb:fd:92:72:16:da:
         5a:ce:31:a9:01:a1:ac:8e:d7:c3:df:9a:74:32:35:ee:d7:7c:
         02:20:47:d3:05:d8:07:0d:39:1d:23:15:d2:81:da:fa:ab:f7:
         48:e9:4c:e2:49:34:1d:c4:2e:2b:38:63:be:05:03:b8
-----BEGIN CERTIFICATE-----
MIIDKjCCAtGgAwIBAgICBUowCgYIKoZIzj0EAwIwFzEVMBMGA1UEAxMMZXN0RXhh
bXBsZUNBMB4XDTE3MTExMzE5MjQwOVoXDTM3MTExMzE5MjQwOVowHjEcMBoGA1UE
AwwTbG9jYWxob3N0LmNpc2NvLmNvbTCCAiIwDQYJKoZIhvcNAQEBBQADggIPADCC
AgoCggIBAKQOn2dsc+k9/pnMvKUqxEgUW1djpGkgOKNq3ulyZheggHda3hapswvE
sgM3Gmk/ZJKC3oozeujcEw7+nPy8Qx1vQjkQ8jBNDqMjEfxB5ELt+Vqdx6IGAil4
dvyKShotj0JOpiwEXdses/tk8U1+B0w3lccr65iOt7cbj3rtbIw9ZdWcWWjIPK01
WiJrkSuWewQC9QLNHnijY8pH07YvfbV4MT3BbbTh9O3npDSZIH9h6JJ34PVafc/h
h9dS0vnhvcpz+hfFKlOEXW9xwTWNgLYfUn4vYUmPiaiUoi5ZBxKZkavgelOnC/0V
08RobdjdAU1zKF/5ZumwvG/0mtWJGJTiGxABDThWbdBS6XdvyhxeTy2JH15qDRT+
2Ok7wVwq/ieaArVG8W6kFTvUPm+XkbnD2j9p1tdNF9Wjy0aVdNxj7Cgch0APkySY
2lEzc61rl2YGuQKD20XI3qfk0taUQ/0HPtGT9yowWe1ogLQvq0ZwwaTyNmtfCSOI
ek+Gw14AmWFi2RGrbXuCGaaRDSwF5jEIGwUyU4ExOQDfk3vURuwB5kfke4FR2fEJ
T3Lk3RB916koRpFN4vg0IGJcl5dE2d1/1fMr60t69Lm8LzQCggfeY7g6PySUcc1p
00Pu/HPjVQf8Tf3T6l8ismGZvS+4euWquiAuMSY9K/6f4z71GydzAgMBAAGjOzA5
MAkGA1UdEwQCMAAwCwYDVR0PBAQDAgXgMB8GA1UdEQQYMBaCFHJvdW5kaG91c2Uu
Y2lzY28uY29tMAoGCCqGSM49BAMCA0cAMEQCICK13YUge2ht6/2SchbaWs4xqQGh
rI7Xw9+adDI17td8AiBH0wXYBw05HSMV0oHa+qv3SOlM4kk0HcQuKzhjvgUDuA==
-----END CERTIFICATE-----
