Certificate:
    Data:
        Version: 3 (0x2)
        Serial Number: 8 (0x8)
        Signature Algorithm: sha256WithRSAEncryption
        Issuer: CN=estExampleHugeSUDICA.verylongwow.cisco123.404neverexisted.z2-3
        Validity
            Not Before: Jan 22 13:40:40 2020 GMT
            Not After : Jan  4 13:40:40 2032 GMT
        Subject: CN=estExampleHugeSUDICA.verylongwow.cisco123.404neverexisted.z2-4
        Subject Public Key Info:
            Public Key Algorithm: rsaEncryption
                RSA Public-Key: (4096 bit)
                Modulus:
                    00:bc:c8:49:b1:a0:6b:c8:c8:85:88:d1:e7:e5:d2:
                    b9:fc:8f:fa:09:8a:3f:5e:58:27:38:c1:5f:a7:6d:
                    80:81:d7:4d:95:04:bd:79:e1:8a:8b:2d:fa:59:da:
                    a2:9c:df:1c:dc:92:0b:55:51:98:d6:12:52:9f:18:
                    27:38:d3:1c:30:46:b9:a4:7a:19:50:d3:a4:67:2a:
                    3e:ce:89:27:45:7a:82:5c:e2:9a:56:e7:33:8c:b5:
                    a6:8b:30:23:f5:f1:13:91:de:01:6f:54:3a:07:1b:
                    25:e0:16:62:7b:73:9c:65:51:a2:f4:88:b3:22:fb:
                    64:77:41:54:77:92:2c:9a:9b:90:9b:53:30:77:86:
                    75:06:2a:56:24:14:06:5c:b5:38:fe:d1:20:e2:6a:
                    66:62:5f:9f:74:1f:43:c8:af:a1:80:17:45:f4:14:
                    df:1d:69:ba:2b:ae:c2:ca:45:5a:ec:75:65:4b:32:
                    d2:2c:2d:93:a0:1d:fb:bc:d1:93:92:1f:d5:ab:bc:
                    95:40:22:70:54:c2:b2:76:05:5c:1d:f5:93:4f:07:
                    8b:17:48:35:f9:27:0d:e4:c8:22:02:de:c4:4b:e1:
                    8e:b1:f0:00:97:1c:86:a7:5d:54:56:4e:38:6e:2a:
                    86:cb:e7:73:58:b9:1a:08:1f:83:2c:90:8a:fe:35:
                    07:39:99:0d:32:8c:96:32:2c:af:f6:9a:c0:d1:94:
                    35:b1:a5:04:9e:1e:53:0d:d9:80:b9:b2:fd:a2:64:
                    6e:9c:50:6f:e1:06:41:1d:a1:81:90:67:fa:02:ce:
                    29:8a:7f:7e:2b:cf:5e:75:62:e5:35:d1:91:dc:7d:
                    dc:45:36:1b:0a:45:62:a5:12:16:1b:2b:fd:61:95:
                    54:76:09:2e:33:4b:d5:81:df:75:d3:ea:7d:e0:57:
                    e8:7f:02:c0:64:12:02:0b:7a:55:8a:07:21:69:68:
                    23:60:91:b9:ec:09:a8:02:d2:13:b2:85:69:43:9a:
                    13:21:08:94:08:a8:f7:49:cf:ac:7e:01:59:11:2d:
                    79:7c:98:0d:7a:19:85:45:58:fb:f3:ba:ac:8c:f3:
                    9c:95:f2:9d:81:04:40:4e:40:86:83:52:a9:ff:c4:
                    ee:95:bd:be:f9:6f:f2:4c:2c:89:00:b8:6f:1e:e0:
                    74:02:26:d4:4e:c6:cd:5e:67:25:4b:2f:d1:ca:69:
                    1c:4c:de:99:3e:1f:e8:8f:61:ab:ef:93:56:5d:79:
                    ec:33:15:85:e9:c1:fc:a8:18:33:f7:5d:d0:72:31:
                    71:3d:83:29:84:bf:86:ad:f2:26:45:d6:27:49:d3:
                    78:7d:1e:d9:03:48:b7:36:c1:c8:4b:62:b5:c3:7a:
                    d6:6c:c3
                Exponent: 65537 (0x10001)
        X509v3 extensions:
            X509v3 Basic Constraints: 
                CA:TRUE
            X509v3 Key Usage: 
                Certificate Sign
            X509v3 CRL Distribution Points: 

                Full Name:
                  URI:http://example.com/crl.pem

            X509v3 Subject Key Identifier: 
                4D:06:A4:CC:44:1A:58:50:E2:2B:AA:6F:5E:DB:1B:91:C6:83:BB:40
            X509v3 Authority Key Identifier: 
                keyid:1F:E7:E6:C9:AA:CA:70:CD:33:26:04:B3:90:F1:F6:EB:A9:F9:B1:6F

            X509v3 Subject Alternative Name: 
                DNS:yourserverscanthandlecertsofthismagnitude.trap2-3.zw, DNS:whoputthefreakinfrenchfries.404nofreakinfrenchfries2-3.zw, DNS:aintnopacketbigenough.aintnopinglowenought.aintnocertificatehugeenough2-3.zw, DNS:youputthecertinthefiledescriptor.shakedtlsallup2-3.zw, DNS:spidermanspidermandoeswhateveraspidercan.spinsawebanysizecatchesthievesjustlikeflies.spinsawebanysizecatchesthievesjustlikeflies2-3.zw, DNS:itsame-mario-hello-letsago-nightynighty-ahspaghetti-ahravioli-ahhmamamia.herewego.wha-haha-ya-whaa-hoohooooo-whoaaa-yeeuuh-yippeee-solongehbowser-pressstarttoplay-gameover2-3.zw, DNS:thelittlecertthatcould.byrygranger.thereoncewasacertthatdreamedthathecouldbreaktheserver-hekeptgettinglargertitlesuntilonedayhedid2-3.zw
    Signature Algorithm: sha256WithRSAEncryption
         74:49:f7:8d:5b:c0:cf:c0:ab:c9:ab:49:3f:fd:55:1c:03:07:
         68:42:6e:bb:4e:34:31:6b:0a:ed:16:70:6d:2a:97:cc:88:ce:
         80:00:fc:80:22:29:b5:08:a6:d3:48:09:d9:d4:62:05:47:02:
         c6:97:d7:ed:99:51:d1:96:ec:44:16:e2:65:e7:98:ef:97:73:
         2e:bd:36:5b:8f:85:02:49:03:f6:0f:be:06:80:87:a5:61:cb:
         49:eb:e6:9d:24:f9:6d:d4:3b:91:a2:4b:67:4c:1b:2f:90:03:
         43:3c:6b:fd:a6:b0:77:fc:88:07:c3:c1:73:1d:ec:93:0b:4e:
         cf:33:53:ff:9a:e3:cf:40:38:1a:b3:59:39:67:c0:77:10:53:
         18:1d:ee:64:c0:63:e9:e1:8e:4e:c2:31:dd:b9:e9:78:eb:a8:
         6b:31:9b:17:79:e5:8b:f7:73:ee:94:aa:36:7c:d4:8e:ff:fc:
         9f:67:34:f4:53:2a:35:0e:40:37:e2:53:d7:ed:ce:42:b9:1f:
         1e:c9:37:ef:ee:64:89:10:e2:0f:56:cd:bc:79:0a:ed:6d:5c:
         7b:32:97:a6:32:41:87:2b:4f:24:3f:68:e9:e9:9d:f2:1a:7d:
         a9:0b:a2:a7:16:b5:94:42:26:78:de:a0:96:8e:98:15:f3:33:
         d0:e0:b0:a1:96:47:57:14:e7:be:e0:66:24:ad:46:78:a9:b1:
         9e:30:1e:b0:1c:ee:ad:8e:81:cf:d4:48:08:8d:6f:ad:d9:bd:
         0f:dc:99:c1:f4:a2:7f:64:85:2d:ff:e5:74:e1:7f:ec:f4:85:
         6f:34:53:63:e8:47:24:35:4d:60:8c:e4:c7:c4:5a:34:1c:00:
         73:b4:18:f2:f9:cd:74:d9:a0:dd:ab:d0:3f:2d:fa:38:b6:d0:
         36:c0:3f:a2:e2:45:3d:a7:8f:57:e4:0e:73:ff:ca:bc:d0:13:
         b9:f9:16:c0:28:c5:8f:7c:04:85:d4:aa:e6:f2:00:1d:ed:1c:
         60:97:86:66:5c:2a:1c:45:05:d0:34:24:fe:c6:c0:cb:c9:7a:
         4a:6b:f5:6d:52:05:58:e1:5d:ad:b3:37:e6:5b:6d:f1:97:4e:
         d3:1e:41:6b:95:e1:01:55:54:dc:53:df:c7:ed:b4:cb:e0:fd:
         07:4b:bd:4f:17:66:10:33:c1:68:20:78:c8:88:88:43:6b:f9:
         1d:11:7b:10:54:b8:ba:35:8d:1f:04:e7:a3:27:b1:9e:ca:a7:
         dd:6f:8f:12:0c:9e:80:21:b8:d4:e3:cb:42:9c:85:ed:bf:c5:
         0b:a9:e3:a8:69:5c:d9:af:28:ea:37:a0:40:f9:ff:54:8e:89:
         fe:23:8c:ab:aa:76:21:63
-----BEGIN CERTIFICATE-----
MIIIajCCBlKgAwIBAgIBCDANBgkqhkiG9w0BAQsFADBJMUcwRQYDVQQDDD5lc3RF
eGFtcGxlSHVnZVNVRElDQS52ZXJ5bG9uZ3dvdy5jaXNjbzEyMy40MDRuZXZlcmV4
aXN0ZWQuejItMzAeFw0yMDAxMjIxMzQwNDBaFw0zMjAxMDQxMzQwNDBaMEkxRzBF
BgNVBAMMPmVzdEV4YW1wbGVIdWdlU1VESUNBLnZlcnlsb25nd293LmNpc2NvMTIz
LjQwNG5ldmVyZXhpc3RlZC56Mi00MIICIjANBgkqhkiG9w0BAQEFAAOCAg8AMIIC
CgKCAgEAvMhJsaBryMiFiNHn5dK5/I/6CYo/XlgnOMFfp22AgddNlQS9eeGKiy36
WdqinN8c3JILVVGY1hJSnxgnONMcMEa5pHoZUNOkZyo+zoknRXqCXOKaVuczjLWm
izAj9fETkd4Bb1Q6Bxsl4BZie3OcZVGi9IizIvtkd0FUd5IsmpuQm1Mwd4Z1BipW
JBQGXLU4/tEg4mpmYl+fdB9DyK+hgBdF9BTfHWm6K67CykVa7HVlSzLSLC2ToB37
vNGTkh/Vq7yVQCJwVMKydgVcHfWTTweLF0g1+ScN5MgiAt7ES+GOsfAAlxyGp11U
Vk44biqGy+dzWLkaCB+DLJCK/jUHOZkNMoyWMiyv9prA0ZQ1saUEnh5TDdmAubL9
omRunFBv4QZBHaGBkGf6As4pin9+K89edWLlNdGR3H3cRTYbCkVipRIWGyv9YZVU
dgkuM0vVgd910+p94FfofwLAZBICC3pVigchaWgjYJG57AmoAtITsoVpQ5oTIQiU
CKj3Sc+sfgFZES15fJgNehmFRVj787qsjPOclfKdgQRATkCGg1Kp/8Tulb2++W/y
TCyJALhvHuB0AibUTsbNXmclSy/RymkcTN6ZPh/oj2Gr75NWXXnsMxWF6cH8qBgz
913QcjFxPYMphL+GrfImRdYnSdN4fR7ZA0i3NsHIS2K1w3rWbMMCAwEAAaOCA1sw
ggNXMAwGA1UdEwQFMAMBAf8wCwYDVR0PBAQDAgIEMCsGA1UdHwQkMCIwIKAeoByG
Gmh0dHA6Ly9leGFtcGxlLmNvbS9jcmwucGVtMB0GA1UdDgQWBBRNBqTMRBpYUOIr
qm9e2xuRxoO7QDAfBgNVHSMEGDAWgBQf5+bJqspwzTMmBLOQ8fbrqfmxbzCCAssG
A1UdEQSCAsIwggK+gjR5b3Vyc2VydmVyc2NhbnRoYW5kbGVjZXJ0c29mdGhpc21h
Z25pdHVkZS50cmFwMi0zLnp3gjl3aG9wdXR0aGVmcmVha2luZnJlbmNoZnJpZXMu
NDA0bm9mcmVha2luZnJlbmNoZnJpZXMyLTMueneCTGFpbnRub3BhY2tldGJpZ2Vu
b3VnaC5haW50bm9waW5nbG93ZW5vdWdodC5haW50bm9jZXJ0aWZpY2F0ZWh1Z2Vl
bm91Z2gyLTMueneCNXlvdXB1dHRoZWNlcnRpbnRoZWZpbGVkZXNjcmlwdG9yLnNo
YWtlZHRsc2FsbHVwMi0zLnp3goGGc3BpZGVybWFuc3BpZGVybWFuZG9lc3doYXRl
dmVyYXNwaWRlcmNhbi5zcGluc2F3ZWJhbnlzaXplY2F0Y2hlc3RoaWV2ZXNqdXN0
bGlrZWZsaWVzLnNwaW5zYXdlYmFueXNpemVjYXRjaGVzdGhpZXZlc2p1c3RsaWtl
ZmxpZXMyLTMueneCgbFpdHNhbWUtbWFyaW8taGVsbG8tbGV0c2Fnby1uaWdodHlu
aWdodHktYWhzcGFnaGV0dGktYWhyYXZpb2xpLWFoaG1hbWFtaWEuaGVyZXdlZ28u
d2hhLWhhaGEteWEtd2hhYS1ob29ob29vb28td2hvYWFhLXllZXV1aC15aXBwZWVl
LXNvbG9uZ2VoYm93c2VyLXByZXNzc3RhcnR0b3BsYXktZ2FtZW92ZXIyLTMueneC
gYh0aGVsaXR0bGVjZXJ0dGhhdGNvdWxkLmJ5cnlncmFuZ2VyLnRoZXJlb25jZXdh
c2FjZXJ0dGhhdGRyZWFtZWR0aGF0aGVjb3VsZGJyZWFrdGhlc2VydmVyLWhla2Vw
dGdldHRpbmdsYXJnZXJ0aXRsZXN1bnRpbG9uZWRheWhlZGlkMi0zLnp3MA0GCSqG
SIb3DQEBCwUAA4ICAQB0SfeNW8DPwKvJq0k//VUcAwdoQm67TjQxawrtFnBtKpfM
iM6AAPyAIim1CKbTSAnZ1GIFRwLGl9ftmVHRluxEFuJl55jvl3MuvTZbj4UCSQP2
D74GgIelYctJ6+adJPlt1DuRoktnTBsvkANDPGv9prB3/IgHw8FzHeyTC07PM1P/
muPPQDgas1k5Z8B3EFMYHe5kwGPp4Y5OwjHduel466hrMZsXeeWL93PulKo2fNSO
//yfZzT0Uyo1DkA34lPX7c5CuR8eyTfv7mSJEOIPVs28eQrtbVx7MpemMkGHK08k
P2jp6Z3yGn2pC6KnFrWUQiZ43qCWjpgV8zPQ4LChlkdXFOe+4GYkrUZ4qbGeMB6w
HO6tjoHP1EgIjW+t2b0P3JnB9KJ/ZIUt/+V04X/s9IVvNFNj6EckNU1gjOTHxFo0
HABztBjy+c102aDdq9A/Lfo4ttA2wD+i4kU9p49X5A5z/8q80BO5+RbAKMWPfASF
1Krm8gAd7Rxgl4ZmXCocRQXQNCT+xsDLyXpKa/VtUgVY4V2tszfmW23xl07THkFr
leEBVVTcU9/H7bTL4P0HS71PF2YQM8FoIHjIiIhDa/kdEXsQVLi6NY0fBOejJ7Ge
yqfdb48SDJ6AIbjU48tCnIXtv8ULqeOoaVzZryjqN6BA+f9Ujon+I4yrqnYhYw==
-----END CERTIFICATE-----
