Certificate:
    Data:
        Version: 3 (0x2)
        Serial Number: 7 (0x7)
        Signature Algorithm: sha256WithRSAEncryption
        Issuer: CN=estExampleHugeSUDICA.verylongwow.cisco123.404neverexisted.z2-2
        Validity
            Not Before: Jan 22 13:40:35 2020 GMT
            Not After : Jan  4 13:40:35 2032 GMT
        Subject: CN=estExampleHugeSUDICA.verylongwow.cisco123.404neverexisted.z2-3
        Subject Public Key Info:
            Public Key Algorithm: rsaEncryption
                RSA Public-Key: (4096 bit)
                Modulus:
                    00:e7:2d:38:f2:a7:d7:8a:51:56:78:10:c6:c4:a7:
                    1c:d8:cc:6c:8d:c3:46:8a:47:9a:8b:87:bb:e0:8f:
                    f7:c3:f0:9b:4d:2b:28:6e:d4:48:da:74:cb:39:62:
                    86:c3:42:7f:f8:6c:06:79:fa:d7:b9:71:4c:bd:a8:
                    f4:57:fc:82:a2:22:40:a8:76:9c:11:e6:37:86:64:
                    8e:65:c0:f0:e2:80:33:26:a8:75:68:8a:0c:f0:5b:
                    4c:e8:24:e6:f2:1b:51:26:bc:36:31:1c:c3:4e:49:
                    34:88:44:b5:65:49:b8:9f:08:0f:17:7f:7b:08:2a:
                    4e:14:b5:e3:43:34:e3:98:92:60:d8:8d:06:a1:05:
                    2e:8c:5b:3d:13:1b:32:23:c9:c7:3b:36:a5:35:76:
                    e9:a1:fa:a8:c4:19:75:f6:84:43:43:22:1b:ae:8a:
                    4e:d6:6a:e6:e0:ba:d3:42:25:42:45:ab:30:fb:51:
                    02:f6:01:ed:e7:a1:32:f3:85:ec:3f:c0:71:0e:25:
                    50:00:f0:bd:a1:1e:6c:62:05:00:7a:c6:4a:07:b9:
                    2a:73:81:37:73:a8:02:4c:14:81:41:47:50:41:f7:
                    45:e6:b3:d5:f6:12:df:46:01:8f:95:cf:3b:1e:2f:
                    42:57:48:60:ca:f0:23:b8:b8:6d:e1:61:b2:39:d8:
                    37:97:e3:2d:4c:84:5b:29:ca:7b:0a:8c:d2:d2:d2:
                    2d:5f:3f:6c:65:25:a1:de:b7:68:29:de:a8:79:d8:
                    28:c3:27:0d:f9:4f:cc:d9:84:f4:ee:b5:0d:7e:fc:
                    d5:55:9f:4b:b2:66:51:af:2b:4d:88:96:a6:0f:2e:
                    23:8c:a5:da:df:5b:3f:ec:d2:5c:7f:2c:1b:18:44:
                    40:37:7a:6a:d7:94:1b:f0:cd:5b:3d:94:04:1c:82:
                    5b:ad:66:74:3d:a3:89:ab:5b:a5:8d:1f:9c:a8:a6:
                    7e:ee:d4:2f:5d:27:0d:34:d8:7f:65:29:ca:92:9b:
                    de:86:81:0d:c4:06:2c:91:8f:8f:ca:93:b2:d4:81:
                    43:e6:c9:c1:f9:54:d5:f5:14:e8:5b:f2:9d:93:00:
                    90:cc:c3:af:3d:7e:72:39:4a:5b:06:d9:83:17:2d:
                    68:c1:de:b1:2d:b9:ae:3f:a7:d2:d7:df:22:9a:83:
                    29:88:8a:e8:71:22:6d:5f:17:72:a7:e1:35:0f:ed:
                    5b:18:98:b6:45:b0:41:ce:b1:d8:6e:1f:7e:5f:cc:
                    40:51:54:de:a4:d2:b5:c7:26:7b:1c:0d:d0:7d:92:
                    5b:67:1a:db:e5:e7:d6:e1:ea:01:d9:d3:b2:00:7a:
                    ab:db:2a:04:79:7c:89:24:f1:2e:09:c0:8e:d2:9c:
                    77:d1:4d
                Exponent: 65537 (0x10001)
        X509v3 extensions:
            X509v3 Basic Constraints: 
                CA:TRUE
            X509v3 Key Usage: 
                Certificate Sign
            X509v3 CRL Distribution Points: 

                Full Name:
                  URI:http://example.com/crl.pem

            X509v3 Subject Key Identifier: 
                1F:E7:E6:C9:AA:CA:70:CD:33:26:04:B3:90:F1:F6:EB:A9:F9:B1:6F
            X509v3 Authority Key Identifier: 
                keyid:77:4F:6A:C2:07:26:52:F9:4C:52:3B:2A:B9:DA:E4:E6:03:19:20:9E

            X509v3 Subject Alternative Name: 
                DNS:yourserverscanthandlecertsofthismagnitude.trap2-2.zw, DNS:whoputthefreakinfrenchfries.404nofreakinfrenchfries2-2.zw, DNS:aintnopacketbigenough.aintnopinglowenought.aintnocertificatehugeenough2-2.zw, DNS:youputthecertinthefiledescriptor.shakedtlsallup2-2.zw, DNS:spidermanspidermandoeswhateveraspidercan.spinsawebanysizecatchesthievesjustlikeflies.spinsawebanysizecatchesthievesjustlikeflies2-2.zw, DNS:itsame-mario-hello-letsago-nightynighty-ahspaghetti-ahravioli-ahhmamamia.herewego.wha-haha-ya-whaa-hoohooooo-whoaaa-yeeuuh-yippeee-solongehbowser-pressstarttoplay-gameover2-2.zw, DNS:thelittlecertthatcould.byrygranger.thereoncewasacertthatdreamedthathecouldbreaktheserver-hekeptgettinglargertitlesuntilonedayhedid2-2.zw
    Signature Algorithm: sha256WithRSAEncryption
         01:96:96:a3:08:a9:28:22:f8:b7:2c:4d:f6:b0:fa:5e:75:67:
         a6:ad:0b:93:fd:36:02:45:45:4c:0b:88:a7:25:19:4c:a9:de:
         85:0e:b1:30:da:42:a6:f4:5c:85:1b:bb:d2:07:48:e9:94:ea:
         c1:a6:13:fc:71:6c:cf:b0:4c:4e:0b:23:2c:2f:71:24:97:c2:
         f9:d3:e6:c8:d1:b5:41:78:a1:58:cb:b1:d1:92:26:e7:e4:08:
         59:83:61:35:cb:c8:a4:4d:03:77:7a:72:5e:e0:51:ed:cc:91:
         cd:12:80:92:43:7c:37:d2:1c:e4:20:29:2a:46:6d:3b:57:44:
         9d:63:bc:38:31:40:08:50:f2:81:9f:19:9b:40:47:de:b8:7b:
         a1:10:43:74:03:d2:61:1b:1b:0a:32:c4:fe:95:25:ef:73:26:
         94:c1:0e:a3:6f:ed:ed:22:11:24:25:61:0d:b9:97:1b:5d:6d:
         2d:96:d0:b3:b0:08:89:62:88:77:61:9b:77:01:d7:10:87:b4:
         f9:e7:39:eb:ad:24:db:7f:33:58:43:d6:4e:52:c8:68:31:ae:
         41:0f:ef:e1:b1:cb:7b:1d:95:45:63:3f:ab:4c:54:90:ce:90:
         93:1d:c3:e2:f8:8b:4c:e4:24:91:1a:6e:4d:89:d8:aa:31:2c:
         41:c9:19:bf:ab:d3:ca:8c:be:be:09:92:7a:99:67:51:34:3f:
         9a:7a:24:d2:0e:64:ae:71:48:05:30:b4:66:11:e4:3a:fd:cc:
         5a:3d:ca:a2:26:7c:72:8c:e8:68:f4:14:ae:eb:d3:a5:79:1a:
         6a:5d:a5:9a:a6:65:71:d8:c4:bb:c0:f4:94:17:6d:32:8e:44:
         79:ba:09:85:18:83:4a:0d:eb:6d:2c:b7:28:22:55:86:93:cd:
         9d:45:55:e2:90:f5:08:f0:22:8c:d3:79:2d:53:19:5b:ca:91:
         ff:46:1e:78:9a:4e:f0:16:aa:48:b6:f2:79:01:d0:c4:e0:ef:
         d9:2d:8b:43:2a:16:49:c9:55:44:05:59:77:cb:5a:27:1f:0e:
         4d:54:d2:6b:78:11:43:72:bd:3d:29:79:5e:e1:c0:00:1c:ef:
         9b:58:89:9d:d2:15:6f:25:7a:3c:b9:9c:9a:b0:e2:88:d8:60:
         1a:59:b8:7b:ba:9c:7c:33:0a:0a:55:cd:88:36:31:25:04:b1:
         f6:32:18:f7:79:2b:08:0e:08:58:64:db:b1:11:d6:f3:44:15:
         fb:af:94:f4:d3:5c:bf:3a:b5:37:4b:a8:14:f2:23:f1:a2:5b:
         3c:aa:ad:b5:fa:43:3f:73:73:4f:e9:f8:a3:42:dc:d0:92:98:
         5e:8c:89:57:9c:09:61:c6
-----BEGIN CERTIFICATE-----
MIIIajCCBlKgAwIBAgIBBzANBgkqhkiG9w0BAQsFADBJMUcwRQYDVQQDDD5lc3RF
eGFtcGxlSHVnZVNVRElDQS52ZXJ5bG9uZ3dvdy5jaXNjbzEyMy40MDRuZXZlcmV4
aXN0ZWQuejItMjAeFw0yMDAxMjIxMzQwMzVaFw0zMjAxMDQxMzQwMzVaMEkxRzBF
BgNVBAMMPmVzdEV4YW1wbGVIdWdlU1VESUNBLnZlcnlsb25nd293LmNpc2NvMTIz
LjQwNG5ldmVyZXhpc3RlZC56Mi0zMIICIjANBgkqhkiG9w0BAQEFAAOCAg8AMIIC
CgKCAgEA5y048qfXilFWeBDGxKcc2MxsjcNGikeai4e74I/3w/CbTSsobtRI2nTL
OWKGw0J/+GwGefrXuXFMvaj0V/yCoiJAqHacEeY3hmSOZcDw4oAzJqh1aIoM8FtM
6CTm8htRJrw2MRzDTkk0iES1ZUm4nwgPF397CCpOFLXjQzTjmJJg2I0GoQUujFs9
ExsyI8nHOzalNXbpofqoxBl19oRDQyIbropO1mrm4LrTQiVCRasw+1EC9gHt56Ey
84XsP8BxDiVQAPC9oR5sYgUAesZKB7kqc4E3c6gCTBSBQUdQQfdF5rPV9hLfRgGP
lc87Hi9CV0hgyvAjuLht4WGyOdg3l+MtTIRbKcp7CozS0tItXz9sZSWh3rdoKd6o
edgowycN+U/M2YT07rUNfvzVVZ9LsmZRrytNiJamDy4jjKXa31s/7NJcfywbGERA
N3pq15Qb8M1bPZQEHIJbrWZ0PaOJq1uljR+cqKZ+7tQvXScNNNh/ZSnKkpvehoEN
xAYskY+PypOy1IFD5snB+VTV9RToW/KdkwCQzMOvPX5yOUpbBtmDFy1owd6xLbmu
P6fS198imoMpiIrocSJtXxdyp+E1D+1bGJi2RbBBzrHYbh9+X8xAUVTepNK1xyZ7
HA3QfZJbZxrb5efW4eoB2dOyAHqr2yoEeXyJJPEuCcCO0px30U0CAwEAAaOCA1sw
ggNXMAwGA1UdEwQFMAMBAf8wCwYDVR0PBAQDAgIEMCsGA1UdHwQkMCIwIKAeoByG
Gmh0dHA6Ly9leGFtcGxlLmNvbS9jcmwucGVtMB0GA1UdDgQWBBQf5+bJqspwzTMm
BLOQ8fbrqfmxbzAfBgNVHSMEGDAWgBR3T2rCByZS+UxSOyq52uTmAxkgnjCCAssG
A1UdEQSCAsIwggK+gjR5b3Vyc2VydmVyc2NhbnRoYW5kbGVjZXJ0c29mdGhpc21h
Z25pdHVkZS50cmFwMi0yLnp3gjl3aG9wdXR0aGVmcmVha2luZnJlbmNoZnJpZXMu
NDA0bm9mcmVha2luZnJlbmNoZnJpZXMyLTIueneCTGFpbnRub3BhY2tldGJpZ2Vu
b3VnaC5haW50bm9waW5nbG93ZW5vdWdodC5haW50bm9jZXJ0aWZpY2F0ZWh1Z2Vl
bm91Z2gyLTIueneCNXlvdXB1dHRoZWNlcnRpbnRoZWZpbGVkZXNjcmlwdG9yLnNo
YWtlZHRsc2FsbHVwMi0yLnp3goGGc3BpZGVybWFuc3BpZGVybWFuZG9lc3doYXRl
dmVyYXNwaWRlcmNhbi5zcGluc2F3ZWJhbnlzaXplY2F0Y2hlc3RoaWV2ZXNqdXN0
bGlrZWZsaWVzLnNwaW5zYXdlYmFueXNpemVjYXRjaGVzdGhpZXZlc2p1c3RsaWtl
ZmxpZXMyLTIueneCgbFpdHNhbWUtbWFyaW8taGVsbG8tbGV0c2Fnby1uaWdodHlu
aWdodHktYWhzcGFnaGV0dGktYWhyYXZpb2xpLWFoaG1hbWFtaWEuaGVyZXdlZ28u
d2hhLWhhaGEteWEtd2hhYS1ob29ob29vb28td2hvYWFhLXllZXV1aC15aXBwZWVl
LXNvbG9uZ2VoYm93c2VyLXByZXNzc3RhcnR0b3BsYXktZ2FtZW92ZXIyLTIueneC
gYh0aGVsaXR0bGVjZXJ0dGhhdGNvdWxkLmJ5cnlncmFuZ2VyLnRoZXJlb25jZXdh
c2FjZXJ0dGhhdGRyZWFtZWR0aGF0aGVjb3VsZGJyZWFrdGhlc2VydmVyLWhla2Vw
dGdldHRpbmdsYXJnZXJ0aXRsZXN1bnRpbG9uZWRheWhlZGlkMi0yLnp3MA0GCSqG
SIb3DQEBCwUAA4ICAQABlpajCKkoIvi3LE32sPpedWemrQuT/TYCRUVMC4inJRlM
qd6FDrEw2kKm9FyFG7vSB0jplOrBphP8cWzPsExOCyMsL3Ekl8L50+bI0bVBeKFY
y7HRkibn5AhZg2E1y8ikTQN3enJe4FHtzJHNEoCSQ3w30hzkICkqRm07V0SdY7w4
MUAIUPKBnxmbQEfeuHuhEEN0A9JhGxsKMsT+lSXvcyaUwQ6jb+3tIhEkJWENuZcb
XW0tltCzsAiJYoh3YZt3AdcQh7T55znrrSTbfzNYQ9ZOUshoMa5BD+/hsct7HZVF
Yz+rTFSQzpCTHcPi+ItM5CSRGm5NidiqMSxByRm/q9PKjL6+CZJ6mWdRND+aeiTS
DmSucUgFMLRmEeQ6/cxaPcqiJnxyjOho9BSu69OleRpqXaWapmVx2MS7wPSUF20y
jkR5ugmFGINKDettLLcoIlWGk82dRVXikPUI8CKM03ktUxlbypH/Rh54mk7wFqpI
tvJ5AdDE4O/ZLYtDKhZJyVVEBVl3y1onHw5NVNJreBFDcr09KXle4cAAHO+bWImd
0hVvJXo8uZyasOKI2GAaWbh7upx8MwoKVc2INjElBLH2Mhj3eSsIDghYZNuxEdbz
RBX7r5T001y/OrU3S6gU8iPxols8qq21+kM/c3NP6fijQtzQkphejIlXnAlhxg==
-----END CERTIFICATE-----
