Certificate:
    Data:
        Version: 3 (0x2)
        Serial Number: 4 (0x4)
        Signature Algorithm: ecdsa-with-SHA256
        Issuer: CN=estExampleSUDICA
        Validity
            Not Before: Jan 22 13:40:28 2020 GMT
            Not After : Jan  4 13:40:28 2032 GMT
        Subject: CN=estExampleHugeSUDICA.verylongwow.cisco123.404neverexisted.z2-0
        Subject Public Key Info:
            Public Key Algorithm: rsaEncryption
                RSA Public-Key: (4096 bit)
                Modulus:
                    00:d2:65:70:f8:45:93:db:6b:a4:08:ea:77:3c:b5:
                    33:d6:d8:5b:89:ea:16:fd:01:30:4f:10:5c:aa:e1:
                    dc:66:e0:ed:d4:8c:5a:14:d0:96:2f:75:c9:21:a1:
                    1e:f8:d8:35:19:77:e3:9c:48:fb:38:d6:c5:0b:64:
                    d8:16:00:27:2c:8a:44:68:e1:c6:9f:ba:0c:a5:60:
                    14:dc:c9:f5:ba:37:89:69:dc:8a:1f:ff:5e:39:eb:
                    a3:71:70:7f:b2:c2:95:eb:05:15:cb:d8:00:da:ca:
                    d0:82:8c:c3:ec:c2:8b:7d:0f:c6:bb:0d:11:e6:11:
                    3d:cb:91:94:ae:4d:d0:9a:f2:6c:bf:09:d1:ca:f6:
                    e5:b3:67:15:c8:9d:80:48:98:4c:0f:f6:da:b1:9c:
                    34:d7:21:93:10:88:06:b9:ef:ad:da:80:8e:20:37:
                    b7:db:d1:e4:d6:00:ab:35:57:c2:6c:29:5a:16:54:
                    f6:c8:f1:f8:97:c5:81:37:96:df:27:2c:55:92:87:
                    1f:c5:3e:6a:ad:00:2f:2d:76:a8:8e:4d:79:b9:a1:
                    e8:6b:f2:ec:1a:06:b6:13:c6:f1:eb:30:7b:01:66:
                    4b:35:38:14:db:88:34:93:a2:a4:9d:a6:ed:c0:fd:
                    44:e0:ca:7e:73:e8:09:53:be:99:07:b7:27:53:84:
                    16:f5:7b:46:32:ff:58:11:d0:cb:20:f7:a2:2c:cb:
                    33:fb:ca:30:d2:9a:e2:ec:25:31:2d:65:55:02:1a:
                    49:a1:f1:34:63:13:0c:01:aa:1f:2f:2a:87:5b:89:
                    36:2c:24:93:e4:af:0d:4e:66:13:61:e9:b0:ad:d2:
                    ae:62:7c:d8:29:79:8c:de:3b:13:03:53:8f:f2:8a:
                    65:55:38:59:c8:17:28:2a:4f:fd:12:13:20:26:06:
                    c5:6d:d6:37:00:71:91:d2:2e:d1:1a:dc:75:e4:3c:
                    25:81:29:64:c6:fa:55:a7:22:a7:bf:9b:05:3f:74:
                    9d:e7:01:1b:67:49:c7:5b:6d:d8:10:09:86:3b:d9:
                    e3:ba:07:97:51:eb:a8:cf:53:ce:98:aa:36:12:4d:
                    d7:f5:8d:7e:ed:4d:08:fd:ef:01:2e:22:18:67:f8:
                    80:e4:2c:17:a3:a3:d8:97:68:52:b5:f1:d2:a5:39:
                    a9:f4:f0:40:03:6d:8e:7e:e2:ec:66:3e:93:e6:f3:
                    2f:de:3a:56:aa:38:6b:56:8f:bb:1b:41:b7:db:f5:
                    55:05:f8:dc:6d:ff:e3:b0:5c:1d:9b:4e:1b:0d:9d:
                    c6:95:5e:2d:7f:bc:52:ea:02:0d:16:42:b9:19:b8:
                    80:64:13:c3:a1:79:5d:6f:08:ff:0e:4f:8a:96:b6:
                    2d:ea:ab
                Exponent: 65537 (0x10001)
        X509v3 extensions:
            X509v3 Basic Constraints: 
                CA:TRUE
            X509v3 Key Usage: 
                Certificate Sign
            X509v3 CRL Distribution Points: 

                Full Name:
                  URI:http://example.com/crl.pem

            X509v3 Subject Key Identifier: 
                8B:16:32:9E:47:F4:7B:F1:81:8A:27:D7:E9:9C:4C:FB:BF:17:A3:4A
            X509v3 Authority Key Identifier: 
                keyid:F3:5F:1F:51:E9:F8:88:19:FE:73:06:76:6C:CE:34:09:EE:C0:62:FB

            X509v3 Subject Alternative Name: 
                DNS:yourserverscanthandlecertsofthismagnitude.trap.zw, DNS:whoputthefreakinfrenchfries.404nofreakinfrenchfries.zw, DNS:aintnopacketbigenough.aintnopinglowenought.aintnocertificatehugeenough.zw, DNS:youputthecertinthefiledescriptor.shakedtlsallup.zw, DNS:spidermanspidermandoeswhateveraspidercan.spinsawebanysizecatchesthievesjustlikeflies.spinsawebanysizecatchesthievesjustlikeflies.zw, DNS:itsame-mario-hello-letsago-nightynighty-ahspaghetti-ahravioli-ahhmamamia.herewego.wha-haha-ya-whaa-hoohooooo-whoaaa-yeeuuh-yippeee-solongehbowser-pressstarttoplay-gameover.zw, DNS:thelittlecertthatcould.byrygranger.thereoncewasacertthatdreamedthathecouldbreaktheserver-hekeptgettinglargertitlesuntilonedayhedid.zw
    Signature Algorithm: ecdsa-with-SHA256
         30:44:02:20:40:18:1a:e1:bf:d5:d1:8d:e8:e7:96:c5:22:4e:
         2a:97:bd:ee:7a:d9:4a:a7:af:2f:d3:ae:da:75:cc:7c:1c:93:
         02:20:05:1c:56:63:0c:07:75:6e:b8:86:2d:34:18:6b:a2:25:
         8c:18:9d:87:09:1d:78:52:06:a6:60:c3:b9:6f:41:74
-----BEGIN CERTIFICATE-----
MIIGZTCCBgygAwIBAgIBBDAKBggqhkjOPQQDAjAbMRkwFwYDVQQDDBBlc3RFeGFt
cGxlU1VESUNBMB4XDTIwMDEyMjEzNDAyOFoXDTMyMDEwNDEzNDAyOFowSTFHMEUG
A1UEAww+ZXN0RXhhbXBsZUh1Z2VTVURJQ0EudmVyeWxvbmd3b3cuY2lzY28xMjMu
NDA0bmV2ZXJleGlzdGVkLnoyLTAwggIiMA0GCSqGSIb3DQEBAQUAA4ICDwAwggIK
AoICAQDSZXD4RZPba6QI6nc8tTPW2FuJ6hb9ATBPEFyq4dxm4O3UjFoU0JYvdckh
oR742DUZd+OcSPs41sULZNgWACcsikRo4cafugylYBTcyfW6N4lp3Iof/14566Nx
cH+ywpXrBRXL2ADaytCCjMPswot9D8a7DRHmET3LkZSuTdCa8my/CdHK9uWzZxXI
nYBImEwP9tqxnDTXIZMQiAa5763agI4gN7fb0eTWAKs1V8JsKVoWVPbI8fiXxYE3
lt8nLFWShx/FPmqtAC8tdqiOTXm5oehr8uwaBrYTxvHrMHsBZks1OBTbiDSToqSd
pu3A/UTgyn5z6AlTvpkHtydThBb1e0Yy/1gR0Msg96IsyzP7yjDSmuLsJTEtZVUC
Gkmh8TRjEwwBqh8vKodbiTYsJJPkrw1OZhNh6bCt0q5ifNgpeYzeOxMDU4/yimVV
OFnIFygqT/0SEyAmBsVt1jcAcZHSLtEa3HXkPCWBKWTG+lWnIqe/mwU/dJ3nARtn
ScdbbdgQCYY72eO6B5dR66jPU86YqjYSTdf1jX7tTQj97wEuIhhn+IDkLBejo9iX
aFK18dKlOan08EADbY5+4uxmPpPm8y/eOlaqOGtWj7sbQbfb9VUF+Nxt/+OwXB2b
ThsNncaVXi1/vFLqAg0WQrkZuIBkE8OheV1vCP8OT4qWti3qqwIDAQABo4IDRjCC
A0IwDAYDVR0TBAUwAwEB/zALBgNVHQ8EBAMCAgQwKwYDVR0fBCQwIjAgoB6gHIYa
aHR0cDovL2V4YW1wbGUuY29tL2NybC5wZW0wHQYDVR0OBBYEFIsWMp5H9HvxgYon
1+mcTPu/F6NKMB8GA1UdIwQYMBaAFPNfH1Hp+IgZ/nMGdmzONAnuwGL7MIICtgYD
VR0RBIICrTCCAqmCMXlvdXJzZXJ2ZXJzY2FudGhhbmRsZWNlcnRzb2Z0aGlzbWFn
bml0dWRlLnRyYXAueneCNndob3B1dHRoZWZyZWFraW5mcmVuY2hmcmllcy40MDRu
b2ZyZWFraW5mcmVuY2hmcmllcy56d4JJYWludG5vcGFja2V0YmlnZW5vdWdoLmFp
bnRub3Bpbmdsb3dlbm91Z2h0LmFpbnRub2NlcnRpZmljYXRlaHVnZWVub3VnaC56
d4IyeW91cHV0dGhlY2VydGludGhlZmlsZWRlc2NyaXB0b3Iuc2hha2VkdGxzYWxs
dXAueneCgYNzcGlkZXJtYW5zcGlkZXJtYW5kb2Vzd2hhdGV2ZXJhc3BpZGVyY2Fu
LnNwaW5zYXdlYmFueXNpemVjYXRjaGVzdGhpZXZlc2p1c3RsaWtlZmxpZXMuc3Bp
bnNhd2ViYW55c2l6ZWNhdGNoZXN0aGlldmVzanVzdGxpa2VmbGllcy56d4KBrml0
c2FtZS1tYXJpby1oZWxsby1sZXRzYWdvLW5pZ2h0eW5pZ2h0eS1haHNwYWdoZXR0
aS1haHJhdmlvbGktYWhobWFtYW1pYS5oZXJld2Vnby53aGEtaGFoYS15YS13aGFh
LWhvb2hvb29vby13aG9hYWEteWVldXVoLXlpcHBlZWUtc29sb25nZWhib3dzZXIt
cHJlc3NzdGFydHRvcGxheS1nYW1lb3Zlci56d4KBhXRoZWxpdHRsZWNlcnR0aGF0
Y291bGQuYnlyeWdyYW5nZXIudGhlcmVvbmNld2FzYWNlcnR0aGF0ZHJlYW1lZHRo
YXRoZWNvdWxkYnJlYWt0aGVzZXJ2ZXItaGVrZXB0Z2V0dGluZ2xhcmdlcnRpdGxl
c3VudGlsb25lZGF5aGVkaWQuencwCgYIKoZIzj0EAwIDRwAwRAIgQBga4b/V0Y3o
55bFIk4ql73uetlKp68v067adcx8HJMCIAUcVmMMB3VuuIYtNBhroiWMGJ2HCR14
UgamYMO5b0F0
-----END CERTIFICATE-----
