Certificate:
    Data:
        Version: 3 (0x2)
        Serial Number: 6 (0x6)
        Signature Algorithm: sha256WithRSAEncryption
        Issuer: CN=estExampleHugeSUDICA.verylongwow.cisco123.404neverexisted.z2-1
        Validity
            Not Before: Jan 22 13:40:34 2020 GMT
            Not After : Jan  4 13:40:34 2032 GMT
        Subject: CN=estExampleHugeSUDICA.verylongwow.cisco123.404neverexisted.z2-2
        Subject Public Key Info:
            Public Key Algorithm: rsaEncryption
                RSA Public-Key: (4096 bit)
                Modulus:
                    00:c3:3b:c5:89:54:86:d3:d9:08:e1:21:b1:c0:90:
                    50:ec:4e:81:22:b8:38:86:e0:f2:8d:e5:b6:e7:51:
                    2d:40:24:d3:39:27:53:58:21:d8:fe:f3:ac:92:5b:
                    21:2c:a4:b0:7f:c4:30:5e:f1:91:2a:25:44:26:07:
                    85:fc:a4:77:eb:02:ca:67:9a:94:ff:c0:88:2a:b2:
                    05:ed:a7:7b:11:10:49:ba:82:6e:09:53:4a:25:fa:
                    93:08:74:35:bc:d9:d2:7a:da:36:2b:fc:e2:42:44:
                    50:ec:8b:3d:90:ee:1d:4e:70:ac:55:9f:b2:d2:71:
                    e0:0b:cd:99:58:aa:fe:a2:0d:67:3d:a5:f5:92:a1:
                    2c:bd:50:f5:32:09:9c:b2:73:93:d9:9a:40:f1:41:
                    52:ed:94:fa:3f:5f:e7:72:84:a3:25:8b:e0:9c:d1:
                    26:8c:dc:91:7e:45:31:af:3d:43:5a:ca:10:f4:81:
                    63:c8:d4:29:18:bd:fe:00:99:3d:f5:ca:4b:be:c7:
                    08:1e:15:a4:a5:2d:c8:71:4c:f0:d7:aa:07:d6:4b:
                    81:86:c3:ba:4c:03:d6:bd:9a:4d:f5:0b:c6:80:fc:
                    27:07:ee:0c:ad:40:3c:fc:14:10:a4:99:27:68:80:
                    69:7d:b4:31:36:40:6d:b3:18:63:e4:71:a6:b9:7f:
                    8e:11:25:27:ad:bf:aa:99:45:bc:47:cd:f2:a9:f4:
                    80:72:78:c8:8d:ab:0c:f8:41:e0:a6:98:8d:4c:ec:
                    32:17:19:fb:1c:60:bc:3a:4b:8b:d1:89:72:78:12:
                    8b:3e:88:5f:e4:24:cf:26:cc:2b:3a:12:f5:19:00:
                    8d:3d:0e:47:d3:9b:b2:4c:63:10:e9:d3:83:d8:de:
                    f4:fb:f9:8f:40:fa:7e:b0:21:4a:db:18:70:b4:df:
                    67:5f:bd:b2:37:ad:f9:9d:84:ff:80:4c:06:dc:8d:
                    40:f4:82:d0:f5:70:89:6b:ef:36:7c:70:f8:a3:db:
                    ab:38:95:16:9f:e3:82:1f:1f:8f:d3:78:48:cb:59:
                    eb:ca:19:33:50:05:9c:64:c8:1e:75:43:93:ba:12:
                    02:f8:79:ba:45:b7:de:94:0c:d3:ac:42:a7:99:1c:
                    d1:88:b4:72:9c:5e:ac:65:7d:ab:09:2a:1b:1d:dc:
                    8b:a1:37:11:68:31:1e:cc:22:ff:5e:84:50:54:50:
                    c2:7b:6f:19:bf:ff:98:49:16:d8:19:b6:cd:46:d1:
                    67:19:b0:65:cd:95:95:b2:e6:de:4e:23:76:c6:6d:
                    ae:0c:2f:2f:65:01:21:56:75:48:27:52:ef:ea:44:
                    df:9d:28:e7:16:62:80:a9:be:c0:18:61:e7:c1:e6:
                    48:42:35
                Exponent: 65537 (0x10001)
        X509v3 extensions:
            X509v3 Basic Constraints: 
                CA:TRUE
            X509v3 Key Usage: 
                Certificate Sign
            X509v3 CRL Distribution Points: 

                Full Name:
                  URI:http://example.com/crl.pem

            X509v3 Subject Key Identifier: 
                77:4F:6A:C2:07:26:52:F9:4C:52:3B:2A:B9:DA:E4:E6:03:19:20:9E
            X509v3 Authority Key Identifier: 
                keyid:A2:F4:E5:D4:02:3A:12:58:68:15:4F:3C:38:05:FF:B7:25:0D:F5:10

            X509v3 Subject Alternative Name: 
                DNS:yourserverscanthandlecertsofthismagnitude.trap2-1.zw, DNS:whoputthefreakinfrenchfries.404nofreakinfrenchfries2-1.zw, DNS:aintnopacketbigenough.aintnopinglowenought.aintnocertificatehugeenough2-1.zw, DNS:youputthecertinthefiledescriptor.shakedtlsallup2-1.zw, DNS:spidermanspidermandoeswhateveraspidercan.spinsawebanysizecatchesthievesjustlikeflies.spinsawebanysizecatchesthievesjustlikeflies2-1.zw, DNS:itsame-mario-hello-letsago-nightynighty-ahspaghetti-ahravioli-ahhmamamia.herewego.wha-haha-ya-whaa-hoohooooo-whoaaa-yeeuuh-yippeee-solongehbowser-pressstarttoplay-gameover2-1.zw, DNS:thelittlecertthatcould.byrygranger.thereoncewasacertthatdreamedthathecouldbreaktheserver-hekeptgettinglargertitlesuntilonedayhedid2-1.zw
    Signature Algorithm: sha256WithRSAEncryption
         32:dd:be:b9:8c:da:da:c7:19:7e:30:0b:6e:af:5b:33:76:89:
         35:ca:5f:92:f3:8d:e3:c2:3a:2b:eb:02:76:03:8d:86:2c:75:
         ff:08:b2:59:80:55:2a:d8:42:1a:90:c7:59:1c:c2:fe:da:65:
         2b:fd:1f:9d:7b:b5:41:a5:4d:42:c3:d9:69:7c:a0:d8:97:3d:
         bb:e9:17:1c:59:c1:f3:88:45:6f:60:b4:ac:e6:e9:1b:2c:9a:
         07:96:14:a8:3c:4b:d1:dc:47:d1:e9:63:02:22:3b:3d:77:15:
         4b:9f:76:0f:8e:f5:34:c8:13:9b:5a:5f:e7:c1:d9:97:b6:93:
         0d:12:dc:de:62:14:e2:a1:e2:bd:6d:ed:bb:62:fc:32:8f:31:
         ca:70:31:85:d6:88:47:35:9c:86:f3:7d:1b:04:fc:95:45:4c:
         d0:42:b8:4d:d2:5e:23:82:7a:a8:2a:40:3d:df:dc:f3:fc:87:
         1d:20:5d:12:50:48:7f:3f:2f:1c:fa:d9:f2:79:87:b9:1e:d0:
         90:cc:1d:1b:99:a5:e8:0e:6d:d2:28:8e:3c:a8:0a:67:7e:0e:
         02:18:ed:67:1a:c5:39:d5:20:44:45:78:9f:82:df:b3:7c:7a:
         2a:6d:23:b6:ed:75:42:e9:c1:74:11:6e:f1:a2:ad:e3:04:c7:
         6d:d1:d9:4f:73:dc:77:db:93:70:7d:0c:e0:d1:4e:5b:42:98:
         fa:47:de:fd:30:29:b4:be:af:01:e2:af:e9:05:96:8a:1a:5a:
         2a:dc:16:00:13:df:7d:04:80:e4:34:3a:5f:0f:2c:ce:d5:1d:
         a2:4a:d8:64:3e:78:c9:16:ff:f9:e5:3b:35:d6:2b:4c:75:24:
         88:7b:84:88:1a:e2:2c:f2:51:43:79:a7:64:da:dc:75:eb:5f:
         70:46:da:5a:dc:63:ab:f2:7b:6c:ed:f6:0d:01:07:be:58:3a:
         9a:83:6c:ac:b7:10:18:1f:d5:20:56:6a:1a:e1:08:82:e5:4f:
         0f:fc:91:49:bb:13:2f:df:38:72:aa:8a:bf:dc:87:8b:56:a4:
         b3:f1:1f:76:86:68:71:14:4d:3e:b4:27:d5:51:37:fa:bd:35:
         bf:6c:70:d6:e8:14:ad:9d:3a:b9:af:af:b1:ac:94:a6:03:2a:
         1b:a6:09:25:4f:ce:06:b1:ce:e7:a6:2b:b2:8c:39:45:88:e9:
         f7:42:43:01:00:d4:fd:13:61:7d:85:27:84:93:43:6a:77:3e:
         23:82:1f:04:aa:5e:1a:77:1a:9c:f2:b8:ca:94:3c:53:13:1f:
         ab:18:9d:f2:d5:7c:f4:66:e9:d9:02:29:0c:90:35:81:dd:89:
         e7:bb:b4:7c:8f:3b:45:2c
-----BEGIN CERTIFICATE-----
MIIIajCCBlKgAwIBAgIBBjANBgkqhkiG9w0BAQsFADBJMUcwRQYDVQQDDD5lc3RF
eGFtcGxlSHVnZVNVRElDQS52ZXJ5bG9uZ3dvdy5jaXNjbzEyMy40MDRuZXZlcmV4
aXN0ZWQuejItMTAeFw0yMDAxMjIxMzQwMzRaFw0zMjAxMDQxMzQwMzRaMEkxRzBF
BgNVBAMMPmVzdEV4YW1wbGVIdWdlU1VESUNBLnZlcnlsb25nd293LmNpc2NvMTIz
LjQwNG5ldmVyZXhpc3RlZC56Mi0yMIICIjANBgkqhkiG9w0BAQEFAAOCAg8AMIIC
CgKCAgEAwzvFiVSG09kI4SGxwJBQ7E6BIrg4huDyjeW251EtQCTTOSdTWCHY/vOs
klshLKSwf8QwXvGRKiVEJgeF/KR36wLKZ5qU/8CIKrIF7ad7ERBJuoJuCVNKJfqT
CHQ1vNnSeto2K/ziQkRQ7Is9kO4dTnCsVZ+y0nHgC82ZWKr+og1nPaX1kqEsvVD1
MgmcsnOT2ZpA8UFS7ZT6P1/ncoSjJYvgnNEmjNyRfkUxrz1DWsoQ9IFjyNQpGL3+
AJk99cpLvscIHhWkpS3IcUzw16oH1kuBhsO6TAPWvZpN9QvGgPwnB+4MrUA8/BQQ
pJknaIBpfbQxNkBtsxhj5HGmuX+OESUnrb+qmUW8R83yqfSAcnjIjasM+EHgppiN
TOwyFxn7HGC8OkuL0YlyeBKLPohf5CTPJswrOhL1GQCNPQ5H05uyTGMQ6dOD2N70
+/mPQPp+sCFK2xhwtN9nX72yN635nYT/gEwG3I1A9ILQ9XCJa+82fHD4o9urOJUW
n+OCHx+P03hIy1nryhkzUAWcZMgedUOTuhIC+Hm6RbfelAzTrEKnmRzRiLRynF6s
ZX2rCSobHdyLoTcRaDEezCL/XoRQVFDCe28Zv/+YSRbYGbbNRtFnGbBlzZWVsube
TiN2xm2uDC8vZQEhVnVIJ1Lv6kTfnSjnFmKAqb7AGGHnweZIQjUCAwEAAaOCA1sw
ggNXMAwGA1UdEwQFMAMBAf8wCwYDVR0PBAQDAgIEMCsGA1UdHwQkMCIwIKAeoByG
Gmh0dHA6Ly9leGFtcGxlLmNvbS9jcmwucGVtMB0GA1UdDgQWBBR3T2rCByZS+UxS
Oyq52uTmAxkgnjAfBgNVHSMEGDAWgBSi9OXUAjoSWGgVTzw4Bf+3JQ31EDCCAssG
A1UdEQSCAsIwggK+gjR5b3Vyc2VydmVyc2NhbnRoYW5kbGVjZXJ0c29mdGhpc21h
Z25pdHVkZS50cmFwMi0xLnp3gjl3aG9wdXR0aGVmcmVha2luZnJlbmNoZnJpZXMu
NDA0bm9mcmVha2luZnJlbmNoZnJpZXMyLTEueneCTGFpbnRub3BhY2tldGJpZ2Vu
b3VnaC5haW50bm9waW5nbG93ZW5vdWdodC5haW50bm9jZXJ0aWZpY2F0ZWh1Z2Vl
bm91Z2gyLTEueneCNXlvdXB1dHRoZWNlcnRpbnRoZWZpbGVkZXNjcmlwdG9yLnNo
YWtlZHRsc2FsbHVwMi0xLnp3goGGc3BpZGVybWFuc3BpZGVybWFuZG9lc3doYXRl
dmVyYXNwaWRlcmNhbi5zcGluc2F3ZWJhbnlzaXplY2F0Y2hlc3RoaWV2ZXNqdXN0
bGlrZWZsaWVzLnNwaW5zYXdlYmFueXNpemVjYXRjaGVzdGhpZXZlc2p1c3RsaWtl
ZmxpZXMyLTEueneCgbFpdHNhbWUtbWFyaW8taGVsbG8tbGV0c2Fnby1uaWdodHlu
aWdodHktYWhzcGFnaGV0dGktYWhyYXZpb2xpLWFoaG1hbWFtaWEuaGVyZXdlZ28u
d2hhLWhhaGEteWEtd2hhYS1ob29ob29vb28td2hvYWFhLXllZXV1aC15aXBwZWVl
LXNvbG9uZ2VoYm93c2VyLXByZXNzc3RhcnR0b3BsYXktZ2FtZW92ZXIyLTEueneC
gYh0aGVsaXR0bGVjZXJ0dGhhdGNvdWxkLmJ5cnlncmFuZ2VyLnRoZXJlb25jZXdh
c2FjZXJ0dGhhdGRyZWFtZWR0aGF0aGVjb3VsZGJyZWFrdGhlc2VydmVyLWhla2Vw
dGdldHRpbmdsYXJnZXJ0aXRsZXN1bnRpbG9uZWRheWhlZGlkMi0xLnp3MA0GCSqG
SIb3DQEBCwUAA4ICAQAy3b65jNraxxl+MAtur1szdok1yl+S843jwjor6wJ2A42G
LHX/CLJZgFUq2EIakMdZHML+2mUr/R+de7VBpU1Cw9lpfKDYlz276RccWcHziEVv
YLSs5ukbLJoHlhSoPEvR3EfR6WMCIjs9dxVLn3YPjvU0yBObWl/nwdmXtpMNEtze
YhTioeK9be27YvwyjzHKcDGF1ohHNZyG830bBPyVRUzQQrhN0l4jgnqoKkA939zz
/IcdIF0SUEh/Py8c+tnyeYe5HtCQzB0bmaXoDm3SKI48qApnfg4CGO1nGsU51SBE
RXifgt+zfHoqbSO27XVC6cF0EW7xoq3jBMdt0dlPc9x325NwfQzg0U5bQpj6R979
MCm0vq8B4q/pBZaKGloq3BYAE999BIDkNDpfDyzO1R2iSthkPnjJFv/55Ts11itM
dSSIe4SIGuIs8lFDeadk2tx1619wRtpa3GOr8nts7fYNAQe+WDqag2ystxAYH9Ug
Vmoa4QiC5U8P/JFJuxMv3zhyqoq/3IeLVqSz8R92hmhxFE0+tCfVUTf6vTW/bHDW
6BStnTq5r6+xrJSmAyobpgklT84Gsc7npiuyjDlFiOn3QkMBANT9E2F9hSeEk0Nq
dz4jgh8Eql4adxqc8rjKlDxTEx+rGJ3y1Xz0ZunZAikMkDWB3Ynnu7R8jztFLA==
-----END CERTIFICATE-----
