Certificate:
    Data:
        Version: 3 (0x2)
        Serial Number: 9 (0x9)
        Signature Algorithm: sha256WithRSAEncryption
        Issuer: CN=estExampleHugeSUDICA.verylongwow.cisco123.404neverexisted.z2-4
        Validity
            Not Before: Jan 22 13:40:42 2020 GMT
            Not After : Jan  4 13:40:42 2032 GMT
        Subject: CN=estExampleHugeSUDICA.verylongwow.cisco123.404neverexisted.z2-5
        Subject Public Key Info:
            Public Key Algorithm: rsaEncryption
                RSA Public-Key: (4096 bit)
                Modulus:
                    00:df:40:a0:5a:fb:cd:82:78:b2:0e:53:7e:93:bf:
                    31:01:9b:cd:a3:f3:ad:aa:4f:30:8b:f9:ce:7f:67:
                    46:1a:fe:65:a5:69:7b:b3:72:b2:f5:3e:e9:4f:13:
                    03:a2:17:5c:d7:4d:00:f6:ad:fa:1f:17:31:1b:55:
                    e7:64:b7:28:6b:8a:f5:a3:ad:b1:c6:33:04:98:e0:
                    cc:71:46:6f:57:f1:3e:0b:23:51:73:ab:11:24:b7:
                    f1:21:83:5e:18:40:a9:76:03:a8:95:15:b9:d9:e5:
                    b8:8a:f1:3a:d4:a9:2f:3d:54:22:d1:70:cf:4c:92:
                    57:58:3a:9d:32:85:ab:fe:f6:d5:80:cd:48:f6:3b:
                    8a:bb:45:a2:b4:6f:03:96:f8:36:33:14:d0:62:2b:
                    a2:9b:6f:40:e3:61:6f:6e:23:1f:31:30:5c:8d:31:
                    73:34:b1:7b:c6:84:4b:1f:db:b8:15:00:0c:03:e5:
                    5f:68:2f:4a:ca:27:03:eb:90:5a:8b:57:19:72:fe:
                    07:4c:7f:b4:ab:5f:fd:df:66:ad:db:70:63:48:de:
                    c7:03:53:5d:6d:9d:d2:55:53:5d:40:4c:9a:ab:28:
                    27:d4:ca:c1:a4:32:ab:e4:12:71:5d:db:ce:b3:62:
                    b1:52:f6:7a:64:ed:95:92:2a:b3:4c:55:c5:94:4d:
                    1a:d7:59:8d:b1:64:18:79:3b:1e:ee:dc:ee:8a:46:
                    d3:69:08:a3:aa:91:c9:5c:64:a0:e7:3b:9d:1a:88:
                    a2:28:9c:a2:42:39:56:67:29:a4:1e:ef:61:ce:7f:
                    e0:06:33:cd:51:f3:77:50:44:be:dd:57:26:1e:7c:
                    2f:4a:25:83:b6:53:cf:67:cd:0d:3c:e7:42:71:07:
                    71:64:6d:67:76:7f:fd:5b:61:63:4d:41:82:8a:46:
                    a4:bf:39:eb:3e:ab:28:a5:8b:f6:4f:0c:47:6e:28:
                    b7:bf:df:08:62:b4:cb:33:f8:71:36:c5:57:87:ff:
                    53:e7:58:d9:3d:b6:93:7a:ff:06:df:03:77:bb:58:
                    ee:47:69:a9:55:62:d6:57:ec:03:6a:77:1a:c4:20:
                    aa:5c:11:23:23:cc:49:46:ab:5f:3c:40:c8:16:88:
                    b6:22:43:51:42:3c:4e:7d:47:c7:52:f4:1e:cd:94:
                    d1:a6:77:e5:b2:98:e9:7a:60:07:e4:6f:b3:26:71:
                    08:f3:90:fd:b5:9b:5d:ec:99:88:5f:fb:a0:e0:da:
                    b5:6f:55:e1:47:dc:97:a4:0a:a0:c2:6f:f9:3d:a7:
                    45:3b:1a:c4:c9:18:f7:6b:3e:a8:31:4c:b5:f8:97:
                    b7:f3:c8:76:5b:e7:78:73:dc:39:f1:bb:e8:bd:4b:
                    7e:4b:c3
                Exponent: 65537 (0x10001)
        X509v3 extensions:
            X509v3 Basic Constraints: 
                CA:TRUE
            X509v3 Key Usage: 
                Certificate Sign
            X509v3 CRL Distribution Points: 

                Full Name:
                  URI:http://example.com/crl.pem

            X509v3 Subject Key Identifier: 
                8F:83:C5:F9:93:EA:1F:19:ED:3E:25:8A:23:47:92:1B:42:65:8D:2C
            X509v3 Authority Key Identifier: 
                keyid:4D:06:A4:CC:44:1A:58:50:E2:2B:AA:6F:5E:DB:1B:91:C6:83:BB:40

            X509v3 Subject Alternative Name: 
                DNS:yourserverscanthandlecertsofthismagnitude.trap2-4.zw, DNS:whoputthefreakinfrenchfries.404nofreakinfrenchfries2-4.zw, DNS:aintnopacketbigenough.aintnopinglowenought.aintnocertificatehugeenough2-4.zw, DNS:youputthecertinthefiledescriptor.shakedtlsallup2-4.zw, DNS:spidermanspidermandoeswhateveraspidercan.spinsawebanysizecatchesthievesjustlikeflies.spinsawebanysizecatchesthievesjustlikeflies2-4.zw, DNS:itsame-mario-hello-letsago-nightynighty-ahspaghetti-ahravioli-ahhmamamia.herewego.wha-haha-ya-whaa-hoohooooo-whoaaa-yeeuuh-yippeee-solongehbowser-pressstarttoplay-gameover2-4.zw, DNS:thelittlecertthatcould.byrygranger.thereoncewasacertthatdreamedthathecouldbreaktheserver-hekeptgettinglargertitlesuntilonedayhedid2-4.zw
    Signature Algorithm: sha256WithRSAEncryption
         3d:05:51:85:6f:a9:88:00:74:a7:9e:2d:b6:ca:2b:1b:73:fe:
         94:6c:c9:cb:94:01:fb:11:de:6f:12:02:37:9f:ef:36:a8:fb:
         6f:02:99:bf:c7:c4:9e:c0:e7:26:1d:0e:5c:58:f9:04:bd:12:
         ad:e3:e9:de:b0:62:f8:aa:66:44:a0:7b:23:f9:41:fa:ce:db:
         a6:70:5e:fd:bb:e4:fa:23:bc:85:24:d3:ef:02:31:34:49:aa:
         ed:aa:0b:a3:a0:6c:aa:db:c1:ed:ac:69:9f:c4:2d:c7:2c:db:
         d1:d4:be:74:35:25:89:9a:9a:39:6f:f7:2d:5e:60:0c:3a:2a:
         bb:d1:c4:1f:b8:3d:bc:cd:90:e0:d3:90:25:2f:b1:c3:04:8a:
         71:92:0a:8a:94:56:85:b2:47:e7:50:cc:d0:c6:14:fe:ea:dd:
         d2:40:4c:db:0f:27:da:d4:6c:ae:83:9d:51:28:12:58:9b:de:
         11:b5:0c:68:da:73:57:78:4d:2d:5a:8b:7e:89:2e:5b:84:9c:
         8f:33:33:5a:21:49:ff:2a:47:1a:6b:01:61:46:12:59:3a:4d:
         ff:8d:53:3b:f4:2b:51:9b:38:b4:3f:ae:f0:86:c1:48:2d:7f:
         a4:89:2e:91:3b:5a:ad:45:b5:91:6c:6f:94:c6:27:97:05:34:
         cb:b3:7b:11:d6:0f:45:c8:c3:68:56:04:37:e3:b5:2a:f5:72:
         a1:69:21:b5:41:4f:aa:61:12:78:a5:ec:38:6c:18:36:a8:4c:
         fe:e4:f5:ed:69:d4:0b:83:ea:aa:32:b0:01:6f:bc:98:72:55:
         e1:19:a7:ad:53:3d:59:1e:0b:46:d7:f9:6b:d7:1b:20:6a:ad:
         e9:83:a6:31:a9:c0:8a:7b:cb:25:ec:e7:80:e8:08:24:72:8f:
         26:4a:3c:59:87:c5:77:f8:8a:70:29:da:f3:7e:9c:38:d8:cf:
         22:a7:82:38:eb:db:5a:23:a2:be:0c:a2:30:84:87:5a:b4:3f:
         6d:0a:d2:78:a1:d8:8e:3b:ef:90:64:cb:6b:84:94:79:20:1d:
         e2:9a:ef:06:3d:a2:c5:14:9e:08:6b:c3:05:fa:4a:73:61:40:
         81:d3:e6:be:e8:50:26:db:d2:24:8f:e7:d6:9a:63:93:51:fe:
         c7:ca:4d:e3:75:5a:67:47:df:37:4d:85:09:6e:a1:be:ee:cb:
         a0:29:2e:fa:a3:e5:7f:9a:ec:9e:f5:c3:94:6a:34:52:ae:34:
         52:dc:b9:fe:0f:b8:91:11:0a:f4:32:df:e0:3d:12:9b:41:93:
         bf:9a:75:89:e1:04:7f:e4:51:39:0e:dd:d2:e9:17:94:55:8c:
         df:ab:64:90:97:c3:bd:57
-----BEGIN CERTIFICATE-----
MIIIajCCBlKgAwIBAgIBCTANBgkqhkiG9w0BAQsFADBJMUcwRQYDVQQDDD5lc3RF
eGFtcGxlSHVnZVNVRElDQS52ZXJ5bG9uZ3dvdy5jaXNjbzEyMy40MDRuZXZlcmV4
aXN0ZWQuejItNDAeFw0yMDAxMjIxMzQwNDJaFw0zMjAxMDQxMzQwNDJaMEkxRzBF
BgNVBAMMPmVzdEV4YW1wbGVIdWdlU1VESUNBLnZlcnlsb25nd293LmNpc2NvMTIz
LjQwNG5ldmVyZXhpc3RlZC56Mi01MIICIjANBgkqhkiG9w0BAQEFAAOCAg8AMIIC
CgKCAgEA30CgWvvNgniyDlN+k78xAZvNo/Otqk8wi/nOf2dGGv5lpWl7s3Ky9T7p
TxMDohdc100A9q36HxcxG1XnZLcoa4r1o62xxjMEmODMcUZvV/E+CyNRc6sRJLfx
IYNeGECpdgOolRW52eW4ivE61KkvPVQi0XDPTJJXWDqdMoWr/vbVgM1I9juKu0Wi
tG8Dlvg2MxTQYiuim29A42FvbiMfMTBcjTFzNLF7xoRLH9u4FQAMA+VfaC9KyicD
65Bai1cZcv4HTH+0q1/932at23BjSN7HA1NdbZ3SVVNdQEyaqygn1MrBpDKr5BJx
XdvOs2KxUvZ6ZO2VkiqzTFXFlE0a11mNsWQYeTse7tzuikbTaQijqpHJXGSg5zud
GoiiKJyiQjlWZymkHu9hzn/gBjPNUfN3UES+3VcmHnwvSiWDtlPPZ80NPOdCcQdx
ZG1ndn/9W2FjTUGCikakvznrPqsopYv2TwxHbii3v98IYrTLM/hxNsVXh/9T51jZ
PbaTev8G3wN3u1juR2mpVWLWV+wDancaxCCqXBEjI8xJRqtfPEDIFoi2IkNRQjxO
fUfHUvQezZTRpnflspjpemAH5G+zJnEI85D9tZtd7JmIX/ug4Nq1b1XhR9yXpAqg
wm/5PadFOxrEyRj3az6oMUy1+Je388h2W+d4c9w58bvovUt+S8MCAwEAAaOCA1sw
ggNXMAwGA1UdEwQFMAMBAf8wCwYDVR0PBAQDAgIEMCsGA1UdHwQkMCIwIKAeoByG
Gmh0dHA6Ly9leGFtcGxlLmNvbS9jcmwucGVtMB0GA1UdDgQWBBSPg8X5k+ofGe0+
JYojR5IbQmWNLDAfBgNVHSMEGDAWgBRNBqTMRBpYUOIrqm9e2xuRxoO7QDCCAssG
A1UdEQSCAsIwggK+gjR5b3Vyc2VydmVyc2NhbnRoYW5kbGVjZXJ0c29mdGhpc21h
Z25pdHVkZS50cmFwMi00Lnp3gjl3aG9wdXR0aGVmcmVha2luZnJlbmNoZnJpZXMu
NDA0bm9mcmVha2luZnJlbmNoZnJpZXMyLTQueneCTGFpbnRub3BhY2tldGJpZ2Vu
b3VnaC5haW50bm9waW5nbG93ZW5vdWdodC5haW50bm9jZXJ0aWZpY2F0ZWh1Z2Vl
bm91Z2gyLTQueneCNXlvdXB1dHRoZWNlcnRpbnRoZWZpbGVkZXNjcmlwdG9yLnNo
YWtlZHRsc2FsbHVwMi00Lnp3goGGc3BpZGVybWFuc3BpZGVybWFuZG9lc3doYXRl
dmVyYXNwaWRlcmNhbi5zcGluc2F3ZWJhbnlzaXplY2F0Y2hlc3RoaWV2ZXNqdXN0
bGlrZWZsaWVzLnNwaW5zYXdlYmFueXNpemVjYXRjaGVzdGhpZXZlc2p1c3RsaWtl
ZmxpZXMyLTQueneCgbFpdHNhbWUtbWFyaW8taGVsbG8tbGV0c2Fnby1uaWdodHlu
aWdodHktYWhzcGFnaGV0dGktYWhyYXZpb2xpLWFoaG1hbWFtaWEuaGVyZXdlZ28u
d2hhLWhhaGEteWEtd2hhYS1ob29ob29vb28td2hvYWFhLXllZXV1aC15aXBwZWVl
LXNvbG9uZ2VoYm93c2VyLXByZXNzc3RhcnR0b3BsYXktZ2FtZW92ZXIyLTQueneC
gYh0aGVsaXR0bGVjZXJ0dGhhdGNvdWxkLmJ5cnlncmFuZ2VyLnRoZXJlb25jZXdh
c2FjZXJ0dGhhdGRyZWFtZWR0aGF0aGVjb3VsZGJyZWFrdGhlc2VydmVyLWhla2Vw
dGdldHRpbmdsYXJnZXJ0aXRsZXN1bnRpbG9uZWRheWhlZGlkMi00Lnp3MA0GCSqG
SIb3DQEBCwUAA4ICAQA9BVGFb6mIAHSnni22yisbc/6UbMnLlAH7Ed5vEgI3n+82
qPtvApm/x8SewOcmHQ5cWPkEvRKt4+nesGL4qmZEoHsj+UH6ztumcF79u+T6I7yF
JNPvAjE0SartqgujoGyq28HtrGmfxC3HLNvR1L50NSWJmpo5b/ctXmAMOiq70cQf
uD28zZDg05AlL7HDBIpxkgqKlFaFskfnUMzQxhT+6t3SQEzbDyfa1Gyug51RKBJY
m94RtQxo2nNXeE0tWot+iS5bhJyPMzNaIUn/KkcaawFhRhJZOk3/jVM79CtRmzi0
P67whsFILX+kiS6RO1qtRbWRbG+UxieXBTTLs3sR1g9FyMNoVgQ347Uq9XKhaSG1
QU+qYRJ4pew4bBg2qEz+5PXtadQLg+qqMrABb7yYclXhGaetUz1ZHgtG1/lr1xsg
aq3pg6YxqcCKe8sl7OeA6Agkco8mSjxZh8V3+IpwKdrzfpw42M8ip4I469taI6K+
DKIwhIdatD9tCtJ4odiOO++QZMtrhJR5IB3imu8GPaLFFJ4Ia8MF+kpzYUCB0+a+
6FAm29Ikj+fWmmOTUf7Hyk3jdVpnR983TYUJbqG+7sugKS76o+V/muye9cOUajRS
rjRS3Ln+D7iREQr0Mt/gPRKbQZO/mnWJ4QR/5FE5Dt3S6ReUVYzfq2SQl8O9Vw==
-----END CERTIFICATE-----
