Certificate:
    Data:
        Version: 3 (0x2)
        Serial Number: 2 (0x2)
        Signature Algorithm: ecdsa-with-SHA256
        Issuer: CN=estExampleSUDICA1-0
        Validity
            Not Before: Jan 22 13:40:27 2020 GMT
            Not After : Jan  4 13:40:27 2032 GMT
        Subject: CN=estExampleSUDICA1-1
        Subject Public Key Info:
            Public Key Algorithm: id-ecPublicKey
                Public-Key: (256 bit)
                pub:
                    04:72:6f:bb:45:17:ae:33:87:e3:58:d2:d7:bb:9b:
                    86:0d:87:c7:f6:4e:54:59:e0:da:c2:d3:22:e5:a5:
                    2b:d3:52:dc:4a:ac:b1:bd:cb:35:ff:74:2c:f6:d1:
                    44:78:cf:f9:f0:21:bd:fe:3f:3e:14:2e:f9:99:b8:
                    ef:8e:ac:8b:49
                ASN1 OID: prime256v1
                NIST CURVE: P-256
        X509v3 extensions:
            X509v3 Basic Constraints: 
                CA:TRUE
            X509v3 Key Usage: 
                Certificate Sign
            X509v3 CRL Distribution Points: 

                Full Name:
                  URI:http://example.com/crl.pem

            X509v3 Subject Key Identifier: 
                DF:95:AC:85:C2:AF:09:24:B6:F5:07:73:77:D3:25:85:74:59:4C:5C
            X509v3 Authority Key Identifier: 
                keyid:DD:FF:51:0A:28:CE:9C:E5:7D:03:8D:6F:FF:7A:1A:F0:63:48:29:86

    Signature Algorithm: ecdsa-with-SHA256
         30:45:02:20:20:d1:3f:0d:62:ec:ae:d1:3b:d8:fd:ee:11:ef:
         75:1e:ac:1c:81:64:d4:f0:90:00:97:fb:bc:08:b6:ec:10:a5:
         02:21:00:f8:0e:2d:ae:20:db:bd:9d:8f:bb:da:3a:0e:5b:ec:
         61:69:f5:43:ab:d9:4a:03:15:55:84:a0:94:bb:be:cc:aa
-----BEGIN CERTIFICATE-----
MIIBtzCCAV2gAwIBAgIBAjAKBggqhkjOPQQDAjAeMRwwGgYDVQQDDBNlc3RFeGFt
cGxlU1VESUNBMS0wMB4XDTIwMDEyMjEzNDAyN1oXDTMyMDEwNDEzNDAyN1owHjEc
MBoGA1UEAwwTZXN0RXhhbXBsZVNVRElDQTEtMTBZMBMGByqGSM49AgEGCCqGSM49
AwEHA0IABHJvu0UXrjOH41jS17ubhg2Hx/ZOVFng2sLTIuWlK9NS3Eqssb3LNf90
LPbRRHjP+fAhvf4/PhQu+Zm4746si0mjgYswgYgwDAYDVR0TBAUwAwEB/zALBgNV
HQ8EBAMCAgQwKwYDVR0fBCQwIjAgoB6gHIYaaHR0cDovL2V4YW1wbGUuY29tL2Ny
bC5wZW0wHQYDVR0OBBYEFN+VrIXCrwkktvUHc3fTJYV0WUxcMB8GA1UdIwQYMBaA
FN3/UQoozpzlfQONb/96GvBjSCmGMAoGCCqGSM49BAMCA0gAMEUCICDRPw1i7K7R
O9j97hHvdR6sHIFk1PCQAJf7vAi27BClAiEA+A4triDbvZ2Pu9o6DlvsYWn1Q6vZ
SgMVVYSglLu+zKo=
-----END CERTIFICATE-----
