Certificate:
    Data:
        Version: 3 (0x2)
        Serial Number: 10 (0xa)
        Signature Algorithm: sha256WithRSAEncryption
        Issuer: CN=estExampleHugeSUDICA.verylongwow.cisco123.404neverexisted.z2-5
        Validity
            Not Before: Jan 22 13:40:43 2020 GMT
            Not After : Jan  4 13:40:43 2032 GMT
        Subject: CN=estExampleHugeSUDICA.verylongwow.cisco123.404neverexisted.z2-6
        Subject Public Key Info:
            Public Key Algorithm: rsaEncryption
                RSA Public-Key: (4096 bit)
                Modulus:
                    00:d5:8a:8a:1b:fd:f3:80:03:24:fd:0c:d1:ee:76:
                    02:41:6a:81:31:a9:c0:56:2a:d7:d7:e4:97:9b:76:
                    b8:ac:23:24:70:97:1b:11:ec:87:37:75:4c:d0:6b:
                    e7:a2:4e:ed:2c:af:2b:0c:8f:85:6f:4e:05:72:0f:
                    75:25:74:22:37:63:bb:88:aa:b3:f4:a6:83:6c:b2:
                    ed:12:09:d7:14:7f:14:60:80:dc:ff:3e:72:12:b3:
                    2d:7e:18:bc:ff:3f:71:b8:7a:c1:ab:71:2f:9a:ca:
                    9c:72:a3:1d:cd:21:1a:22:9e:e2:33:84:47:f0:cd:
                    ba:18:9f:65:ae:9a:f7:eb:28:64:6a:80:63:c8:7e:
                    78:a9:d6:56:77:7d:57:67:c3:a9:7b:1b:53:1b:9b:
                    5c:c8:fe:75:c2:ed:9a:69:ce:15:29:0e:61:a2:1e:
                    94:9e:af:10:63:86:d0:28:43:5c:d7:98:4b:81:27:
                    80:f7:a2:13:9a:9b:ae:9a:24:88:d5:58:7c:0b:cb:
                    7d:c3:e1:65:e0:84:71:5e:71:04:73:f4:43:ba:6b:
                    19:17:c4:44:ac:dc:b6:4e:16:f9:cc:91:09:77:80:
                    ff:76:1e:f7:4e:7f:77:df:fc:70:c4:52:18:47:0e:
                    ed:ff:50:9b:f2:4d:f4:7f:1b:2d:3b:21:3b:62:da:
                    07:0b:c6:4f:96:7d:62:31:ee:d9:0f:6f:cd:83:18:
                    b1:46:7f:e2:e0:32:0c:17:d6:bc:9a:55:30:a2:cc:
                    1a:63:2a:9d:05:60:ca:e8:e2:b3:3e:95:f9:31:0d:
                    a8:b9:3f:4f:bf:d6:5f:f7:9f:27:4b:8e:9c:c5:99:
                    7d:13:29:6b:e3:f6:d1:46:88:48:30:f4:af:1f:fb:
                    63:23:b9:82:ca:42:1b:06:84:01:96:23:50:02:12:
                    af:29:af:37:8b:6c:61:ea:06:5e:13:64:93:c2:dc:
                    7e:04:14:84:db:fc:30:59:e1:38:72:60:39:eb:c5:
                    80:91:c4:bb:da:d4:81:59:e3:6d:bc:f4:0c:94:26:
                    bf:a7:f9:1b:e1:d9:cc:2e:cb:b7:7f:ff:c3:f9:17:
                    b6:89:4a:fe:8b:6d:9a:5a:e0:4f:58:57:13:57:22:
                    4d:52:37:26:9d:52:32:1a:45:ba:45:68:42:d0:ec:
                    7e:a0:e9:8d:db:27:d1:b7:ee:b3:83:0a:e2:2c:9c:
                    f3:af:18:5a:47:7d:9f:dc:fd:9f:48:70:ff:98:70:
                    ba:0c:ac:93:0d:c8:ce:33:37:96:85:fd:c8:d4:fa:
                    29:6c:03:55:0e:5a:76:00:f8:63:73:99:b4:5a:50:
                    ce:86:f2:47:dc:53:3f:36:ad:51:38:40:c1:29:40:
                    de:c6:6b
                Exponent: 65537 (0x10001)
        X509v3 extensions:
            X509v3 Basic Constraints: 
                CA:TRUE
            X509v3 Key Usage: 
                Certificate Sign
            X509v3 CRL Distribution Points: 

                Full Name:
                  URI:http://example.com/crl.pem

            X509v3 Subject Key Identifier: 
                24:EC:E3:86:B7:64:4C:9B:AC:49:84:2A:25:6A:9F:9F:26:7D:A7:09
            X509v3 Authority Key Identifier: 
                keyid:8F:83:C5:F9:93:EA:1F:19:ED:3E:25:8A:23:47:92:1B:42:65:8D:2C

            X509v3 Subject Alternative Name: 
                DNS:yourserverscanthandlecertsofthismagnitude.trap2-5.zw, DNS:whoputthefreakinfrenchfries.404nofreakinfrenchfries2-5.zw, DNS:aintnopacketbigenough.aintnopinglowenought.aintnocertificatehugeenough2-5.zw, DNS:youputthecertinthefiledescriptor.shakedtlsallup2-5.zw, DNS:spidermanspidermandoeswhateveraspidercan.spinsawebanysizecatchesthievesjustlikeflies.spinsawebanysizecatchesthievesjustlikeflies2-5.zw, DNS:itsame-mario-hello-letsago-nightynighty-ahspaghetti-ahravioli-ahhmamamia.herewego.wha-haha-ya-whaa-hoohooooo-whoaaa-yeeuuh-yippeee-solongehbowser-pressstarttoplay-gameover2-5.zw, DNS:thelittlecertthatcould.byrygranger.thereoncewasacertthatdreamedthathecouldbreaktheserver-hekeptgettinglargertitlesuntilonedayhedid2-5.zw
    Signature Algorithm: sha256WithRSAEncryption
         cd:af:72:ce:88:19:1b:fd:3a:ce:e2:3a:04:1f:b9:39:99:dd:
         fb:2a:63:dc:c5:3e:ce:29:97:ac:55:78:5c:c8:02:f5:ee:74:
         2a:c3:05:a1:c2:e5:f2:91:e4:87:14:61:ec:ae:3c:0a:95:a5:
         4e:79:f1:d1:e6:3b:47:37:a7:d1:60:59:46:ab:61:3d:cf:5e:
         0c:4b:13:32:ad:f6:1a:13:fe:db:d4:d9:69:73:40:5a:4b:82:
         41:19:91:fb:45:76:15:bc:59:c8:9c:1a:45:83:64:8b:cc:6c:
         e7:85:c6:8f:c4:65:47:a6:5b:f8:78:e6:1c:2f:65:53:2f:7d:
         b8:02:68:90:37:46:70:a4:8b:ec:cc:f6:b7:12:11:6f:2f:dd:
         dd:10:00:06:54:d6:5b:bb:99:ef:b0:f6:c9:f3:60:1f:6f:ae:
         df:0b:52:38:5e:44:00:e9:12:64:19:a0:33:86:3b:2f:90:08:
         ba:33:1a:36:75:31:d1:bb:20:5c:7e:87:69:49:c3:c6:c4:ea:
         13:24:94:97:e5:1c:67:48:85:1d:b4:9d:49:cd:ef:8f:01:7f:
         fc:54:92:17:f1:92:f8:86:d9:30:8f:fd:c6:29:2e:7d:5f:c6:
         b2:3f:ca:9e:07:59:66:94:ad:bd:ca:98:83:1a:d5:3f:47:74:
         25:85:65:57:ad:c2:71:e3:a8:e1:f6:8d:66:cd:34:d3:40:94:
         44:54:01:4f:1a:b7:8d:cc:8a:fb:37:99:ce:97:c4:47:a0:9d:
         f8:3b:c8:9f:39:68:15:a2:d5:70:71:c5:05:a2:65:36:de:f2:
         59:b6:b4:7a:67:fa:7c:8a:b6:49:ab:20:eb:14:f5:90:47:08:
         ce:b8:f6:1c:4d:bd:8c:c2:15:78:b1:e5:88:f6:0f:22:1e:08:
         d3:d9:16:99:d1:3e:f1:51:ce:be:24:ab:74:1d:8d:26:f1:cd:
         fd:61:a1:95:ea:5d:dc:84:f1:dd:64:fb:4a:6e:2e:b9:76:ad:
         0b:fc:87:5a:c3:f2:17:a8:42:c0:5b:0f:93:c7:83:a8:2b:78:
         c8:d0:bc:0c:23:f2:2b:02:1b:9c:ad:2e:db:64:28:eb:87:dc:
         6f:18:8e:0a:94:6f:cb:88:f9:eb:85:48:cd:f1:37:8c:8f:31:
         d7:e6:d2:e5:46:70:fa:48:2e:3b:08:74:b7:ad:b1:dd:c1:d3:
         55:44:20:93:db:ad:31:25:da:4a:51:6a:38:49:5e:c7:1f:fd:
         6e:40:3b:2c:5b:e1:30:bd:f6:5e:4b:49:53:a1:8b:2e:7d:d0:
         8b:eb:13:66:c5:1c:03:01:b5:d5:d1:59:75:2f:ff:ed:ca:e6:
         85:27:e0:77:c3:e5:ce:28
-----BEGIN CERTIFICATE-----
MIIIajCCBlKgAwIBAgIBCjANBgkqhkiG9w0BAQsFADBJMUcwRQYDVQQDDD5lc3RF
eGFtcGxlSHVnZVNVRElDQS52ZXJ5bG9uZ3dvdy5jaXNjbzEyMy40MDRuZXZlcmV4
aXN0ZWQuejItNTAeFw0yMDAxMjIxMzQwNDNaFw0zMjAxMDQxMzQwNDNaMEkxRzBF
BgNVBAMMPmVzdEV4YW1wbGVIdWdlU1VESUNBLnZlcnlsb25nd293LmNpc2NvMTIz
LjQwNG5ldmVyZXhpc3RlZC56Mi02MIICIjANBgkqhkiG9w0BAQEFAAOCAg8AMIIC
CgKCAgEA1YqKG/3zgAMk/QzR7nYCQWqBManAVirX1+SXm3a4rCMkcJcbEeyHN3VM
0Gvnok7tLK8rDI+Fb04Fcg91JXQiN2O7iKqz9KaDbLLtEgnXFH8UYIDc/z5yErMt
fhi8/z9xuHrBq3EvmsqccqMdzSEaIp7iM4RH8M26GJ9lrpr36yhkaoBjyH54qdZW
d31XZ8OpextTG5tcyP51wu2aac4VKQ5hoh6Unq8QY4bQKENc15hLgSeA96ITmpuu
miSI1Vh8C8t9w+Fl4IRxXnEEc/RDumsZF8RErNy2Thb5zJEJd4D/dh73Tn933/xw
xFIYRw7t/1Cb8k30fxstOyE7YtoHC8ZPln1iMe7ZD2/NgxixRn/i4DIMF9a8mlUw
oswaYyqdBWDK6OKzPpX5MQ2ouT9Pv9Zf958nS46cxZl9Eylr4/bRRohIMPSvH/tj
I7mCykIbBoQBliNQAhKvKa83i2xh6gZeE2STwtx+BBSE2/wwWeE4cmA568WAkcS7
2tSBWeNtvPQMlCa/p/kb4dnMLsu3f//D+Re2iUr+i22aWuBPWFcTVyJNUjcmnVIy
GkW6RWhC0Ox+oOmN2yfRt+6zgwriLJzzrxhaR32f3P2fSHD/mHC6DKyTDcjOMzeW
hf3I1PopbANVDlp2APhjc5m0WlDOhvJH3FM/Nq1ROEDBKUDexmsCAwEAAaOCA1sw
ggNXMAwGA1UdEwQFMAMBAf8wCwYDVR0PBAQDAgIEMCsGA1UdHwQkMCIwIKAeoByG
Gmh0dHA6Ly9leGFtcGxlLmNvbS9jcmwucGVtMB0GA1UdDgQWBBQk7OOGt2RMm6xJ
hColap+fJn2nCTAfBgNVHSMEGDAWgBSPg8X5k+ofGe0+JYojR5IbQmWNLDCCAssG
A1UdEQSCAsIwggK+gjR5b3Vyc2VydmVyc2NhbnRoYW5kbGVjZXJ0c29mdGhpc21h
Z25pdHVkZS50cmFwMi01Lnp3gjl3aG9wdXR0aGVmcmVha2luZnJlbmNoZnJpZXMu
NDA0bm9mcmVha2luZnJlbmNoZnJpZXMyLTUueneCTGFpbnRub3BhY2tldGJpZ2Vu
b3VnaC5haW50bm9waW5nbG93ZW5vdWdodC5haW50bm9jZXJ0aWZpY2F0ZWh1Z2Vl
bm91Z2gyLTUueneCNXlvdXB1dHRoZWNlcnRpbnRoZWZpbGVkZXNjcmlwdG9yLnNo
YWtlZHRsc2FsbHVwMi01Lnp3goGGc3BpZGVybWFuc3BpZGVybWFuZG9lc3doYXRl
dmVyYXNwaWRlcmNhbi5zcGluc2F3ZWJhbnlzaXplY2F0Y2hlc3RoaWV2ZXNqdXN0
bGlrZWZsaWVzLnNwaW5zYXdlYmFueXNpemVjYXRjaGVzdGhpZXZlc2p1c3RsaWtl
ZmxpZXMyLTUueneCgbFpdHNhbWUtbWFyaW8taGVsbG8tbGV0c2Fnby1uaWdodHlu
aWdodHktYWhzcGFnaGV0dGktYWhyYXZpb2xpLWFoaG1hbWFtaWEuaGVyZXdlZ28u
d2hhLWhhaGEteWEtd2hhYS1ob29ob29vb28td2hvYWFhLXllZXV1aC15aXBwZWVl
LXNvbG9uZ2VoYm93c2VyLXByZXNzc3RhcnR0b3BsYXktZ2FtZW92ZXIyLTUueneC
gYh0aGVsaXR0bGVjZXJ0dGhhdGNvdWxkLmJ5cnlncmFuZ2VyLnRoZXJlb25jZXdh
c2FjZXJ0dGhhdGRyZWFtZWR0aGF0aGVjb3VsZGJyZWFrdGhlc2VydmVyLWhla2Vw
dGdldHRpbmdsYXJnZXJ0aXRsZXN1bnRpbG9uZWRheWhlZGlkMi01Lnp3MA0GCSqG
SIb3DQEBCwUAA4ICAQDNr3LOiBkb/TrO4joEH7k5md37KmPcxT7OKZesVXhcyAL1
7nQqwwWhwuXykeSHFGHsrjwKlaVOefHR5jtHN6fRYFlGq2E9z14MSxMyrfYaE/7b
1Nlpc0BaS4JBGZH7RXYVvFnInBpFg2SLzGznhcaPxGVHplv4eOYcL2VTL324AmiQ
N0ZwpIvszPa3EhFvL93dEAAGVNZbu5nvsPbJ82Afb67fC1I4XkQA6RJkGaAzhjsv
kAi6Mxo2dTHRuyBcfodpScPGxOoTJJSX5RxnSIUdtJ1Jze+PAX/8VJIX8ZL4htkw
j/3GKS59X8ayP8qeB1lmlK29ypiDGtU/R3QlhWVXrcJx46jh9o1mzTTTQJREVAFP
GreNzIr7N5nOl8RHoJ34O8ifOWgVotVwccUFomU23vJZtrR6Z/p8irZJqyDrFPWQ
RwjOuPYcTb2MwhV4seWI9g8iHgjT2RaZ0T7xUc6+JKt0HY0m8c39YaGV6l3chPHd
ZPtKbi65dq0L/Idaw/IXqELAWw+Tx4OoK3jI0LwMI/IrAhucrS7bZCjrh9xvGI4K
lG/LiPnrhUjN8TeMjzHX5tLlRnD6SC47CHS3rbHdwdNVRCCT260xJdpKUWo4SV7H
H/1uQDssW+EwvfZeS0lToYsufdCL6xNmxRwDAbXV0Vl1L//tyuaFJ+B3w+XOKA==
-----END CERTIFICATE-----
