Certificate:
    Data:
        Version: 3 (0x2)
        Serial Number: 5 (0x5)
        Signature Algorithm: sha256WithRSAEncryption
        Issuer: CN=estExampleHugeSUDICA.verylongwow.cisco123.404neverexisted.z2-0
        Validity
            Not Before: Jan 22 13:40:29 2020 GMT
            Not After : Jan  4 13:40:29 2032 GMT
        Subject: CN=estExampleHugeSUDICA.verylongwow.cisco123.404neverexisted.z2-1
        Subject Public Key Info:
            Public Key Algorithm: rsaEncryption
                RSA Public-Key: (4096 bit)
                Modulus:
                    00:e6:80:ce:bc:d9:46:7f:34:3d:2a:6a:ce:b2:a8:
                    06:c1:0e:bc:c1:fc:d0:7b:c0:1a:aa:32:7f:75:e7:
                    de:dc:f9:7a:b2:ed:b8:76:d8:df:b0:55:56:6a:3c:
                    0c:92:20:78:ec:a1:d6:d7:86:d0:91:1c:44:10:a4:
                    7b:bb:b0:6a:e9:5b:96:a3:de:ce:ba:49:3e:0a:eb:
                    92:75:19:02:b9:a4:52:9c:b7:51:6e:63:0a:11:6a:
                    e4:9a:a1:d1:fc:b6:60:c5:6c:88:c0:72:04:c3:4c:
                    33:cc:de:22:2a:30:0f:ff:67:a6:03:2d:72:90:d1:
                    a3:e0:37:51:39:2c:d0:2b:52:5a:73:b5:95:6b:4e:
                    a6:98:a9:92:3f:ec:a5:9a:a7:d7:a1:03:d3:5d:28:
                    f2:e3:e8:b1:05:70:85:f7:4a:62:1d:f5:fb:32:db:
                    bc:ac:1e:9e:16:4c:c5:66:92:dc:6d:62:6d:33:cd:
                    fd:8e:a8:ca:16:86:34:37:92:2e:1f:38:fd:9d:51:
                    db:d9:a1:35:99:60:a5:c8:23:ba:d0:1d:b0:98:83:
                    3b:e4:f4:69:3d:26:07:8a:59:fc:38:65:68:83:b5:
                    a9:c3:80:6a:68:0d:ee:5c:11:c8:4d:c6:3d:ac:6d:
                    6c:26:7f:c2:90:43:52:d9:ee:a2:f5:e3:e0:41:99:
                    b0:9f:d3:84:f4:9d:a1:cb:24:5c:2f:c9:62:33:84:
                    b7:06:72:1e:27:25:63:3d:70:34:de:d6:90:3d:3c:
                    85:9f:9d:01:54:ab:d1:16:64:3c:49:b2:56:ea:9b:
                    f8:46:1b:c6:de:fc:9c:a8:11:ae:0d:42:92:b6:58:
                    7d:b6:6f:88:81:c4:6c:0c:a7:99:bb:fe:f1:33:9a:
                    16:a7:46:56:af:bf:5b:6a:20:9e:19:47:0a:04:98:
                    45:7a:15:18:12:55:0c:15:b3:30:43:31:10:54:d9:
                    62:c7:9c:14:f3:0f:92:80:15:a9:a9:27:83:9b:cc:
                    ba:c1:c2:5a:e5:d7:44:07:c4:d5:27:27:71:49:79:
                    fe:cb:62:f1:a5:bb:ac:42:c6:3c:af:09:11:0e:21:
                    ac:3a:55:8b:5d:d2:ac:cc:8c:b4:ca:c7:16:f9:b8:
                    28:4c:96:6c:e9:ad:a4:fb:29:a6:9b:37:2d:84:62:
                    6a:0a:da:6d:87:b8:a0:22:06:75:66:16:3a:3d:6b:
                    d1:47:42:74:04:78:6d:cb:ce:f6:87:89:c0:1f:96:
                    58:35:e3:55:69:24:c3:8a:67:5a:cf:7f:4a:94:91:
                    2f:8f:f7:81:f9:95:27:37:56:a3:1d:f4:69:41:6d:
                    e0:ae:39:fc:91:c6:20:d8:41:32:4d:1b:44:57:4a:
                    0f:c7:29
                Exponent: 65537 (0x10001)
        X509v3 extensions:
            X509v3 Basic Constraints: 
                CA:TRUE
            X509v3 Key Usage: 
                Certificate Sign
            X509v3 CRL Distribution Points: 

                Full Name:
                  URI:http://example.com/crl.pem

            X509v3 Subject Key Identifier: 
                A2:F4:E5:D4:02:3A:12:58:68:15:4F:3C:38:05:FF:B7:25:0D:F5:10
            X509v3 Authority Key Identifier: 
                keyid:8B:16:32:9E:47:F4:7B:F1:81:8A:27:D7:E9:9C:4C:FB:BF:17:A3:4A

            X509v3 Subject Alternative Name: 
                DNS:yourserverscanthandlecertsofthismagnitude.trap2-0.zw, DNS:whoputthefreakinfrenchfries.404nofreakinfrenchfries2-0.zw, DNS:aintnopacketbigenough.aintnopinglowenought.aintnocertificatehugeenough2-0.zw, DNS:youputthecertinthefiledescriptor.shakedtlsallup2-0.zw, DNS:spidermanspidermandoeswhateveraspidercan.spinsawebanysizecatchesthievesjustlikeflies.spinsawebanysizecatchesthievesjustlikeflies2-0.zw, DNS:itsame-mario-hello-letsago-nightynighty-ahspaghetti-ahravioli-ahhmamamia.herewego.wha-haha-ya-whaa-hoohooooo-whoaaa-yeeuuh-yippeee-solongehbowser-pressstarttoplay-gameover2-0.zw, DNS:thelittlecertthatcould.byrygranger.thereoncewasacertthatdreamedthathecouldbreaktheserver-hekeptgettinglargertitlesuntilonedayhedid2-0.zw
    Signature Algorithm: sha256WithRSAEncryption
         8b:0a:80:92:cb:72:9a:f6:b9:3f:e7:ba:36:b0:b4:b6:28:34:
         4c:d6:a7:2c:6d:14:89:3a:ef:80:52:b4:e1:d4:ac:97:4a:19:
         5f:c8:78:60:4b:72:8d:b0:b2:8c:b8:54:f9:07:97:ea:81:26:
         20:0b:a4:6f:c2:7e:6e:34:82:61:fe:c3:de:4d:91:06:a5:e5:
         39:2d:8f:b7:18:6f:67:84:2c:85:9a:de:c0:d1:5d:bc:6c:cc:
         04:a8:7e:65:2b:b2:53:ac:26:85:59:5b:ee:4d:b2:c3:31:fa:
         a6:c4:73:f6:d4:19:f7:a0:67:3e:60:31:4b:fb:15:01:c1:8d:
         59:c4:14:b2:7a:72:36:c8:47:b9:2d:e1:e4:57:39:0b:3e:ed:
         1c:d1:f2:ff:98:29:be:6b:2a:f1:c8:1a:97:3e:2d:34:e0:bb:
         2a:56:0a:04:fa:2b:47:18:a4:7d:fc:ef:90:0d:0b:6f:ce:af:
         6d:6f:4e:69:e4:e6:d6:bc:d5:d0:75:ac:3a:63:12:d7:9f:db:
         dc:81:6d:05:8f:0a:8e:39:3c:4a:d4:30:ba:8e:0a:75:ca:26:
         92:c8:25:d9:fd:30:3c:e6:5d:01:d5:9f:89:4a:86:55:88:8a:
         6c:2c:3a:7f:1a:a9:10:a1:00:97:f3:a3:3d:69:0f:74:5b:e2:
         0c:eb:0e:df:17:5a:c4:96:bb:66:8a:10:f8:59:b3:3e:a1:1a:
         66:38:9a:f3:18:6a:7a:ee:2a:53:a8:79:3d:df:d1:8a:92:3b:
         ce:98:a5:0a:8e:b7:e2:5b:80:56:f2:1a:e8:63:37:f3:ce:c5:
         60:85:d0:d3:7a:ed:71:38:a1:d3:36:e9:90:a0:4e:7f:4d:38:
         a3:0e:cd:44:bb:16:4d:b5:60:a5:8f:b4:7d:be:f6:43:b1:07:
         f5:be:70:ac:2d:13:e3:fd:0e:df:3c:57:c5:6b:11:f7:f5:2e:
         71:65:8d:ea:68:e8:73:aa:2d:2d:f8:f8:f2:40:88:dd:f9:65:
         17:f8:db:44:9b:47:f1:ce:06:fc:76:f5:8c:f1:3e:af:85:1e:
         8e:6a:e1:f8:ee:15:ca:0e:81:92:6f:6f:e0:66:ce:74:2a:92:
         95:f0:31:b3:05:30:81:7b:1f:95:b0:62:93:77:08:ac:c0:1e:
         86:50:8f:63:8b:0c:8e:64:97:ea:f2:5a:8b:74:4b:84:2a:f9:
         65:e8:88:da:e9:6c:83:0f:a3:25:62:a8:06:c1:5e:e9:73:8a:
         53:61:fa:6d:e5:0f:a2:89:ec:0b:ce:70:5b:1f:e3:b9:45:4a:
         cf:85:e3:3f:68:9e:c2:82:c5:79:92:ad:e1:bb:f5:50:22:f0:
         36:93:fb:b3:31:2c:5d:ae
-----BEGIN CERTIFICATE-----
MIIIajCCBlKgAwIBAgIBBTANBgkqhkiG9w0BAQsFADBJMUcwRQYDVQQDDD5lc3RF
eGFtcGxlSHVnZVNVRElDQS52ZXJ5bG9uZ3dvdy5jaXNjbzEyMy40MDRuZXZlcmV4
aXN0ZWQuejItMDAeFw0yMDAxMjIxMzQwMjlaFw0zMjAxMDQxMzQwMjlaMEkxRzBF
BgNVBAMMPmVzdEV4YW1wbGVIdWdlU1VESUNBLnZlcnlsb25nd293LmNpc2NvMTIz
LjQwNG5ldmVyZXhpc3RlZC56Mi0xMIICIjANBgkqhkiG9w0BAQEFAAOCAg8AMIIC
CgKCAgEA5oDOvNlGfzQ9KmrOsqgGwQ68wfzQe8AaqjJ/defe3Pl6su24dtjfsFVW
ajwMkiB47KHW14bQkRxEEKR7u7Bq6VuWo97Oukk+CuuSdRkCuaRSnLdRbmMKEWrk
mqHR/LZgxWyIwHIEw0wzzN4iKjAP/2emAy1ykNGj4DdROSzQK1Jac7WVa06mmKmS
P+ylmqfXoQPTXSjy4+ixBXCF90piHfX7Mtu8rB6eFkzFZpLcbWJtM839jqjKFoY0
N5IuHzj9nVHb2aE1mWClyCO60B2wmIM75PRpPSYHiln8OGVog7Wpw4BqaA3uXBHI
TcY9rG1sJn/CkENS2e6i9ePgQZmwn9OE9J2hyyRcL8liM4S3BnIeJyVjPXA03taQ
PTyFn50BVKvRFmQ8SbJW6pv4RhvG3vycqBGuDUKStlh9tm+IgcRsDKeZu/7xM5oW
p0ZWr79baiCeGUcKBJhFehUYElUMFbMwQzEQVNlix5wU8w+SgBWpqSeDm8y6wcJa
5ddEB8TVJydxSXn+y2LxpbusQsY8rwkRDiGsOlWLXdKszIy0yscW+bgoTJZs6a2k
+ymmmzcthGJqCtpth7igIgZ1ZhY6PWvRR0J0BHhty872h4nAH5ZYNeNVaSTDimda
z39KlJEvj/eB+ZUnN1ajHfRpQW3grjn8kcYg2EEyTRtEV0oPxykCAwEAAaOCA1sw
ggNXMAwGA1UdEwQFMAMBAf8wCwYDVR0PBAQDAgIEMCsGA1UdHwQkMCIwIKAeoByG
Gmh0dHA6Ly9leGFtcGxlLmNvbS9jcmwucGVtMB0GA1UdDgQWBBSi9OXUAjoSWGgV
Tzw4Bf+3JQ31EDAfBgNVHSMEGDAWgBSLFjKeR/R78YGKJ9fpnEz7vxejSjCCAssG
A1UdEQSCAsIwggK+gjR5b3Vyc2VydmVyc2NhbnRoYW5kbGVjZXJ0c29mdGhpc21h
Z25pdHVkZS50cmFwMi0wLnp3gjl3aG9wdXR0aGVmcmVha2luZnJlbmNoZnJpZXMu
NDA0bm9mcmVha2luZnJlbmNoZnJpZXMyLTAueneCTGFpbnRub3BhY2tldGJpZ2Vu
b3VnaC5haW50bm9waW5nbG93ZW5vdWdodC5haW50bm9jZXJ0aWZpY2F0ZWh1Z2Vl
bm91Z2gyLTAueneCNXlvdXB1dHRoZWNlcnRpbnRoZWZpbGVkZXNjcmlwdG9yLnNo
YWtlZHRsc2FsbHVwMi0wLnp3goGGc3BpZGVybWFuc3BpZGVybWFuZG9lc3doYXRl
dmVyYXNwaWRlcmNhbi5zcGluc2F3ZWJhbnlzaXplY2F0Y2hlc3RoaWV2ZXNqdXN0
bGlrZWZsaWVzLnNwaW5zYXdlYmFueXNpemVjYXRjaGVzdGhpZXZlc2p1c3RsaWtl
ZmxpZXMyLTAueneCgbFpdHNhbWUtbWFyaW8taGVsbG8tbGV0c2Fnby1uaWdodHlu
aWdodHktYWhzcGFnaGV0dGktYWhyYXZpb2xpLWFoaG1hbWFtaWEuaGVyZXdlZ28u
d2hhLWhhaGEteWEtd2hhYS1ob29ob29vb28td2hvYWFhLXllZXV1aC15aXBwZWVl
LXNvbG9uZ2VoYm93c2VyLXByZXNzc3RhcnR0b3BsYXktZ2FtZW92ZXIyLTAueneC
gYh0aGVsaXR0bGVjZXJ0dGhhdGNvdWxkLmJ5cnlncmFuZ2VyLnRoZXJlb25jZXdh
c2FjZXJ0dGhhdGRyZWFtZWR0aGF0aGVjb3VsZGJyZWFrdGhlc2VydmVyLWhla2Vw
dGdldHRpbmdsYXJnZXJ0aXRsZXN1bnRpbG9uZWRheWhlZGlkMi0wLnp3MA0GCSqG
SIb3DQEBCwUAA4ICAQCLCoCSy3Ka9rk/57o2sLS2KDRM1qcsbRSJOu+AUrTh1KyX
ShlfyHhgS3KNsLKMuFT5B5fqgSYgC6Rvwn5uNIJh/sPeTZEGpeU5LY+3GG9nhCyF
mt7A0V28bMwEqH5lK7JTrCaFWVvuTbLDMfqmxHP21Bn3oGc+YDFL+xUBwY1ZxBSy
enI2yEe5LeHkVzkLPu0c0fL/mCm+ayrxyBqXPi004LsqVgoE+itHGKR9/O+QDQtv
zq9tb05p5ObWvNXQdaw6YxLXn9vcgW0FjwqOOTxK1DC6jgp1yiaSyCXZ/TA85l0B
1Z+JSoZViIpsLDp/GqkQoQCX86M9aQ90W+IM6w7fF1rElrtmihD4WbM+oRpmOJrz
GGp67ipTqHk939GKkjvOmKUKjrfiW4BW8hroYzfzzsVghdDTeu1xOKHTNumQoE5/
TTijDs1EuxZNtWClj7R9vvZDsQf1vnCsLRPj/Q7fPFfFaxH39S5xZY3qaOhzqi0t
+PjyQIjd+WUX+NtEm0fxzgb8dvWM8T6vhR6OauH47hXKDoGSb2/gZs50KpKV8DGz
BTCBex+VsGKTdwiswB6GUI9jiwyOZJfq8lqLdEuEKvll6Ija6WyDD6MlYqgGwV7p
c4pTYfpt5Q+iiewLznBbH+O5RUrPheM/aJ7CgsV5kq3hu/VQIvA2k/uzMSxdrg==
-----END CERTIFICATE-----
