Certificate:
    Data:
        Version: 3 (0x2)
        Serial Number: 12 (0xc)
        Signature Algorithm: sha256WithRSAEncryption
        Issuer: CN=estExampleHugeSUDICA.verylongwow.cisco123.404neverexisted.z2-6
        Validity
            Not Before: Jan 22 13:40:46 2020 GMT
            Not After : Jan  4 13:40:46 2032 GMT
        Subject: CN=estExampleHugeSUDICA.verylongwow.cisco123.404neverexisted.z2-7
        Subject Public Key Info:
            Public Key Algorithm: rsaEncryption
                RSA Public-Key: (4096 bit)
                Modulus:
                    00:b0:92:d3:46:7c:2e:ef:0b:a9:d0:6e:1d:34:63:
                    35:e3:80:42:72:18:81:19:63:0b:e5:a5:0d:27:8b:
                    32:59:88:ab:7f:a8:63:88:a5:36:f5:9c:01:db:a0:
                    d4:9f:c1:60:a6:c4:b2:66:57:b2:0f:ab:74:32:87:
                    28:ab:04:b3:9b:18:be:3d:34:7e:68:6f:54:4c:17:
                    bf:42:c5:f4:5f:ae:37:f5:c0:19:fe:5f:e8:1f:07:
                    b3:fd:d8:b8:1d:46:70:68:12:7d:50:88:82:49:f4:
                    e3:22:cf:e2:94:bc:94:9b:16:41:9b:ad:b0:96:52:
                    2e:85:b3:ab:9f:26:36:88:3c:16:4c:31:ac:ba:05:
                    99:70:a3:15:32:da:49:7b:53:f4:15:26:37:14:f5:
                    7c:d9:04:da:0b:a1:75:78:56:22:cd:26:23:9c:f6:
                    64:b6:89:68:d9:38:f3:c1:22:91:7e:5e:e3:63:f6:
                    13:eb:f6:a9:90:65:38:40:94:7e:44:e5:65:05:a2:
                    4e:26:05:91:bd:ac:b3:62:67:18:b9:de:2c:24:f1:
                    a2:7f:f5:0a:63:43:0c:0d:3a:9d:c7:fc:09:c5:4c:
                    68:9c:ea:ce:44:c0:71:99:2f:87:fb:4b:8d:bb:7c:
                    cb:83:ae:a8:a0:0a:70:e5:91:49:e6:3a:1a:39:81:
                    49:46:2b:ce:65:cd:37:f1:34:a3:05:54:c1:68:21:
                    98:73:8b:bf:5f:9c:54:2e:b4:c7:04:fd:72:36:1d:
                    99:b3:da:bc:3e:e6:f5:c7:8d:d7:7e:fb:ce:86:5b:
                    ae:22:5f:12:26:91:ab:a0:9d:7e:58:6b:ab:e8:a0:
                    e8:50:3d:f8:27:71:21:0d:e8:ef:7a:4d:8d:fb:b3:
                    7c:cb:97:01:0b:4f:61:f7:77:89:e0:a3:d0:dd:8c:
                    e2:82:8c:c3:d4:5c:e0:28:df:09:ba:ad:e0:e8:8d:
                    7d:59:68:71:93:72:43:ce:0c:7c:11:f2:48:5a:56:
                    97:4d:9b:cc:02:a9:36:93:ca:dd:dd:4c:98:c1:73:
                    f4:82:59:65:d9:af:f3:ed:8d:41:26:c6:06:8d:9d:
                    d4:d2:0e:00:fb:6a:c6:0f:fc:fd:ae:00:2f:88:07:
                    da:74:ab:02:50:7b:3f:b1:6f:a6:7f:7e:e3:5c:52:
                    79:f7:75:b8:ba:ee:e3:8b:31:0f:e8:9b:a9:37:36:
                    4d:0e:70:4f:c5:5d:18:0a:5c:52:fa:2e:a4:61:f0:
                    5b:10:ba:55:f3:ee:5a:c9:a7:aa:1d:b8:f8:5c:ce:
                    01:29:a2:52:8f:b9:cc:f6:53:b0:28:06:99:7b:e5:
                    ab:2e:5c:6d:31:fa:c6:07:a8:56:52:8b:ce:a6:06:
                    ea:5e:95
                Exponent: 65537 (0x10001)
        X509v3 extensions:
            X509v3 Basic Constraints: 
                CA:TRUE
            X509v3 Key Usage: 
                Certificate Sign
            X509v3 CRL Distribution Points: 

                Full Name:
                  URI:http://example.com/crl.pem

            X509v3 Subject Key Identifier: 
                AF:A0:99:9A:D8:0C:4F:1E:2F:57:E7:C1:7F:11:EB:23:4A:68:CA:8F
            X509v3 Authority Key Identifier: 
                keyid:24:EC:E3:86:B7:64:4C:9B:AC:49:84:2A:25:6A:9F:9F:26:7D:A7:09

            X509v3 Subject Alternative Name: 
                DNS:yourserverscanthandlecertsofthismagnitude.trap2-6.zw, DNS:whoputthefreakinfrenchfries.404nofreakinfrenchfries2-6.zw, DNS:aintnopacketbigenough.aintnopinglowenought.aintnocertificatehugeenough2-6.zw, DNS:youputthecertinthefiledescriptor.shakedtlsallup2-6.zw, DNS:spidermanspidermandoeswhateveraspidercan.spinsawebanysizecatchesthievesjustlikeflies.spinsawebanysizecatchesthievesjustlikeflies2-6.zw, DNS:itsame-mario-hello-letsago-nightynighty-ahspaghetti-ahravioli-ahhmamamia.herewego.wha-haha-ya-whaa-hoohooooo-whoaaa-yeeuuh-yippeee-solongehbowser-pressstarttoplay-gameover2-6.zw, DNS:thelittlecertthatcould.byrygranger.thereoncewasacertthatdreamedthathecouldbreaktheserver-hekeptgettinglargertitlesuntilonedayhedid2-6.zw
    Signature Algorithm: sha256WithRSAEncryption
         12:7f:27:9e:e2:59:a5:b2:07:8e:90:91:a1:3f:29:b3:d5:de:
         ff:8a:ca:28:60:b4:92:b7:31:d2:2e:af:51:2c:93:00:3f:f1:
         56:96:01:b0:d1:df:f7:45:d6:ff:3d:3b:28:50:2a:8a:45:68:
         46:23:74:9f:6f:43:e0:f6:ab:96:c6:17:13:8f:62:28:8e:4e:
         9b:06:95:1d:e0:fc:e8:db:61:37:58:4f:30:d4:fc:e2:67:2b:
         6d:1c:9d:f2:97:d9:26:0c:d5:5d:b1:7a:1b:0d:4d:99:77:ad:
         02:22:d1:89:4b:34:70:8d:c9:9b:15:ca:63:3f:cc:dd:af:2b:
         87:9e:06:b4:bd:ba:a8:2f:dc:bb:b0:b2:f5:51:ba:e9:55:f1:
         79:e3:c6:10:10:0f:c3:15:ae:5c:74:f3:a3:bf:0a:fa:23:6c:
         a8:73:81:36:68:49:6c:b3:ec:f5:e3:9c:90:0f:c2:13:21:c8:
         8d:65:33:14:b6:66:08:8b:fa:1f:7c:a4:57:0c:3a:53:6f:72:
         69:96:1b:50:e9:20:c8:d5:0d:9c:da:93:37:2b:59:48:e7:a9:
         c9:01:bf:aa:b7:71:82:2c:a9:23:88:35:83:3e:2f:a0:c3:63:
         5d:7d:f8:e8:21:98:88:88:a5:0f:5d:43:a4:bd:7b:5f:15:f2:
         e2:10:3b:90:0c:41:dd:76:46:89:8f:65:5c:fc:b8:4e:9a:34:
         23:1a:23:5d:7f:b5:28:f2:fb:0c:18:e8:da:5a:41:0c:dc:46:
         03:86:a3:8d:c1:9d:aa:91:b3:cb:0e:f5:ae:3e:bb:0d:da:7a:
         a1:b7:e7:e3:be:3d:96:9a:ae:14:e4:c8:56:54:33:fb:7c:31:
         53:48:d2:c6:7b:10:b9:8f:2b:69:99:72:5e:53:95:64:b2:fc:
         53:56:16:c7:d4:d4:ad:65:1d:52:56:bf:5a:42:15:a0:e6:bc:
         82:9a:84:a9:bd:a7:5b:09:17:ce:cd:9e:6b:6d:68:10:33:83:
         00:41:65:06:4b:5d:b4:7b:ce:3f:db:34:db:ef:46:f6:2a:70:
         18:d7:ba:98:1e:b0:14:a2:18:15:cf:22:89:22:c2:e5:c0:0b:
         45:e6:c3:7b:4f:d8:30:a9:bc:ae:a5:ac:b5:ef:3f:2d:1a:d2:
         f8:7c:79:a0:4e:3c:57:98:ea:07:ca:b7:f4:02:96:75:70:83:
         7b:ab:96:8d:6b:24:90:46:41:eb:e4:6b:d9:90:2f:6d:fa:43:
         ae:44:34:06:83:10:36:ba:d0:d4:fb:61:3d:67:e7:d1:0d:66:
         f4:4e:76:15:a1:95:3d:eb:56:c0:38:5d:1a:4a:ab:64:74:76:
         f7:51:be:bb:b2:07:1a:43
-----BEGIN CERTIFICATE-----
MIIIajCCBlKgAwIBAgIBDDANBgkqhkiG9w0BAQsFADBJMUcwRQYDVQQDDD5lc3RF
eGFtcGxlSHVnZVNVRElDQS52ZXJ5bG9uZ3dvdy5jaXNjbzEyMy40MDRuZXZlcmV4
aXN0ZWQuejItNjAeFw0yMDAxMjIxMzQwNDZaFw0zMjAxMDQxMzQwNDZaMEkxRzBF
BgNVBAMMPmVzdEV4YW1wbGVIdWdlU1VESUNBLnZlcnlsb25nd293LmNpc2NvMTIz
LjQwNG5ldmVyZXhpc3RlZC56Mi03MIICIjANBgkqhkiG9w0BAQEFAAOCAg8AMIIC
CgKCAgEAsJLTRnwu7wup0G4dNGM144BCchiBGWML5aUNJ4syWYirf6hjiKU29ZwB
26DUn8FgpsSyZleyD6t0MocoqwSzmxi+PTR+aG9UTBe/QsX0X6439cAZ/l/oHwez
/di4HUZwaBJ9UIiCSfTjIs/ilLyUmxZBm62wllIuhbOrnyY2iDwWTDGsugWZcKMV
MtpJe1P0FSY3FPV82QTaC6F1eFYizSYjnPZktolo2TjzwSKRfl7jY/YT6/apkGU4
QJR+ROVlBaJOJgWRvayzYmcYud4sJPGif/UKY0MMDTqdx/wJxUxonOrORMBxmS+H
+0uNu3zLg66ooApw5ZFJ5joaOYFJRivOZc038TSjBVTBaCGYc4u/X5xULrTHBP1y
Nh2Zs9q8Pub1x43XfvvOhluuIl8SJpGroJ1+WGur6KDoUD34J3EhDejvek2N+7N8
y5cBC09h93eJ4KPQ3YzigozD1FzgKN8Juq3g6I19WWhxk3JDzgx8EfJIWlaXTZvM
Aqk2k8rd3UyYwXP0glll2a/z7Y1BJsYGjZ3U0g4A+2rGD/z9rgAviAfadKsCUHs/
sW+mf37jXFJ593W4uu7jizEP6JupNzZNDnBPxV0YClxS+i6kYfBbELpV8+5ayaeq
Hbj4XM4BKaJSj7nM9lOwKAaZe+WrLlxtMfrGB6hWUovOpgbqXpUCAwEAAaOCA1sw
ggNXMAwGA1UdEwQFMAMBAf8wCwYDVR0PBAQDAgIEMCsGA1UdHwQkMCIwIKAeoByG
Gmh0dHA6Ly9leGFtcGxlLmNvbS9jcmwucGVtMB0GA1UdDgQWBBSvoJma2AxPHi9X
58F/EesjSmjKjzAfBgNVHSMEGDAWgBQk7OOGt2RMm6xJhColap+fJn2nCTCCAssG
A1UdEQSCAsIwggK+gjR5b3Vyc2VydmVyc2NhbnRoYW5kbGVjZXJ0c29mdGhpc21h
Z25pdHVkZS50cmFwMi02Lnp3gjl3aG9wdXR0aGVmcmVha2luZnJlbmNoZnJpZXMu
NDA0bm9mcmVha2luZnJlbmNoZnJpZXMyLTYueneCTGFpbnRub3BhY2tldGJpZ2Vu
b3VnaC5haW50bm9waW5nbG93ZW5vdWdodC5haW50bm9jZXJ0aWZpY2F0ZWh1Z2Vl
bm91Z2gyLTYueneCNXlvdXB1dHRoZWNlcnRpbnRoZWZpbGVkZXNjcmlwdG9yLnNo
YWtlZHRsc2FsbHVwMi02Lnp3goGGc3BpZGVybWFuc3BpZGVybWFuZG9lc3doYXRl
dmVyYXNwaWRlcmNhbi5zcGluc2F3ZWJhbnlzaXplY2F0Y2hlc3RoaWV2ZXNqdXN0
bGlrZWZsaWVzLnNwaW5zYXdlYmFueXNpemVjYXRjaGVzdGhpZXZlc2p1c3RsaWtl
ZmxpZXMyLTYueneCgbFpdHNhbWUtbWFyaW8taGVsbG8tbGV0c2Fnby1uaWdodHlu
aWdodHktYWhzcGFnaGV0dGktYWhyYXZpb2xpLWFoaG1hbWFtaWEuaGVyZXdlZ28u
d2hhLWhhaGEteWEtd2hhYS1ob29ob29vb28td2hvYWFhLXllZXV1aC15aXBwZWVl
LXNvbG9uZ2VoYm93c2VyLXByZXNzc3RhcnR0b3BsYXktZ2FtZW92ZXIyLTYueneC
gYh0aGVsaXR0bGVjZXJ0dGhhdGNvdWxkLmJ5cnlncmFuZ2VyLnRoZXJlb25jZXdh
c2FjZXJ0dGhhdGRyZWFtZWR0aGF0aGVjb3VsZGJyZWFrdGhlc2VydmVyLWhla2Vw
dGdldHRpbmdsYXJnZXJ0aXRsZXN1bnRpbG9uZWRheWhlZGlkMi02Lnp3MA0GCSqG
SIb3DQEBCwUAA4ICAQASfyee4lmlsgeOkJGhPymz1d7/isooYLSStzHSLq9RLJMA
P/FWlgGw0d/3Rdb/PTsoUCqKRWhGI3Sfb0Pg9quWxhcTj2Iojk6bBpUd4Pzo22E3
WE8w1PziZyttHJ3yl9kmDNVdsXobDU2Zd60CItGJSzRwjcmbFcpjP8zdryuHnga0
vbqoL9y7sLL1UbrpVfF548YQEA/DFa5cdPOjvwr6I2yoc4E2aElss+z145yQD8IT
IciNZTMUtmYIi/offKRXDDpTb3JplhtQ6SDI1Q2c2pM3K1lI56nJAb+qt3GCLKkj
iDWDPi+gw2NdffjoIZiIiKUPXUOkvXtfFfLiEDuQDEHddkaJj2Vc/LhOmjQjGiNd
f7Uo8vsMGOjaWkEM3EYDhqONwZ2qkbPLDvWuPrsN2nqht+fjvj2Wmq4U5MhWVDP7
fDFTSNLGexC5jytpmXJeU5VksvxTVhbH1NStZR1SVr9aQhWg5ryCmoSpvadbCRfO
zZ5rbWgQM4MAQWUGS120e84/2zTb70b2KnAY17qYHrAUohgVzyKJIsLlwAtF5sN7
T9gwqbyupay17z8tGtL4fHmgTjxXmOoHyrf0ApZ1cIN7q5aNaySQRkHr5GvZkC9t
+kOuRDQGgxA2utDU+2E9Z+fRDWb0TnYVoZU961bAOF0aSqtkdHb3Ub67sgcaQw==
-----END CERTIFICATE-----
