Certificate:
    Data:
        Version: 3 (0x2)
        Serial Number: 13 (0xd)
    Signature Algorithm: sha256WithRSAEncryption
        Issuer: CN=estExampleHugeSUDICA.verylongwow.cisco123.404neverexisted.zw2-7
        Validity
            Not Before: Dec  6 15:59:56 2018 GMT
            Not After : Nov 18 15:59:56 2030 GMT
        Subject: CN=127.0.0.1
        Subject Public Key Info:
            Public Key Algorithm: rsaEncryption
                Public-Key: (4096 bit)
                Modulus:
                    00:e4:10:f8:a4:15:13:51:0e:e7:cc:0f:11:fe:9f:
                    93:1e:1d:c2:93:f4:3b:83:7c:71:2b:33:e1:a0:95:
                    eb:5f:7d:c0:f8:45:c5:7f:fb:0f:f3:79:e7:7f:40:
                    9b:f6:28:79:04:ff:52:2e:aa:43:3e:d8:e2:72:71:
                    02:b6:c8:2c:e7:ee:99:c2:ba:03:6d:ad:0c:e5:81:
                    ed:47:dc:3b:e9:b6:df:c1:0b:6d:68:61:f6:d5:aa:
                    ae:12:fd:82:a3:ea:19:61:fe:e7:9c:ed:34:81:b2:
                    d4:19:c7:63:06:7f:b4:6c:76:6e:d5:e1:20:a6:82:
                    35:96:a1:1a:35:ea:26:eb:f5:41:f6:0e:93:33:6f:
                    b0:5a:58:5a:80:c2:7e:bb:3a:bc:06:16:01:28:e1:
                    7e:9f:3b:0a:5c:35:1e:0f:9e:17:ea:8b:5d:83:6b:
                    04:76:3c:c3:69:08:a0:cf:13:23:bb:5d:c6:ad:f3:
                    5b:8f:fe:28:b5:29:59:76:e7:44:1d:44:dd:a8:7a:
                    fc:8c:50:36:f3:3c:73:ee:9f:ee:4d:4e:fa:48:da:
                    c5:40:b1:c1:ab:fc:9e:ab:82:88:f2:3c:6d:91:05:
                    7c:6d:dc:51:00:17:52:e7:01:03:3a:18:df:11:cf:
                    f8:8d:8c:cf:2a:e5:1b:06:00:a5:e8:b9:b3:31:03:
                    83:72:37:88:06:b9:70:ea:ad:e1:c8:06:cd:a2:cb:
                    96:f6:8f:2a:9f:de:9a:61:b3:e7:c4:3d:72:4e:99:
                    9f:d1:67:c9:a7:01:01:93:17:b3:1d:e3:c3:d7:07:
                    61:7c:d4:17:ba:39:d3:35:9d:8f:97:9d:0d:53:93:
                    41:2e:f1:b6:5d:6f:14:f2:3b:e1:27:73:27:7f:0a:
                    54:1f:ae:29:a5:f8:43:5c:f9:5e:c6:00:fa:1c:f4:
                    0f:db:43:86:7e:10:45:e7:90:1a:a4:d2:39:93:80:
                    5e:69:0b:ca:77:21:3c:e7:81:a8:c4:2f:71:99:3c:
                    f9:63:62:61:ce:7d:ba:d9:4e:87:cd:f8:46:5e:35:
                    a0:a6:f8:56:c0:21:96:af:cb:1e:3b:cc:6a:c3:ae:
                    e3:2c:8a:4e:9b:41:45:c2:5b:9b:5c:af:86:e4:3e:
                    93:77:91:c6:ad:23:26:75:d5:11:9a:08:4b:b4:56:
                    a7:c6:a5:c1:cc:75:b3:4d:b9:76:a6:a8:fc:b4:38:
                    67:77:a5:31:6f:15:b9:ad:be:43:f6:1d:e0:19:25:
                    18:05:cf:80:8d:28:32:1b:35:ed:31:61:42:a8:e3:
                    5a:2c:1b:da:65:cd:c6:24:97:7b:4c:b5:ca:e6:ee:
                    c2:8b:42:7c:d8:f2:7a:a2:be:9d:0f:ac:a3:0b:5b:
                    a8:2a:0d
                Exponent: 65537 (0x10001)
        X509v3 extensions:
            X509v3 Basic Constraints: 
                CA:FALSE
            X509v3 Key Usage: 
                Digital Signature, Non Repudiation, Key Encipherment
            X509v3 Subject Alternative Name: 
                DNS:localhost, DNS:ip6-localhost, IP Address:127.0.0.1, IP Address:0:0:0:0:0:0:0:1
            X509v3 CRL Distribution Points: 

                Full Name:
                  URI:http://example.com/crl.pem

    Signature Algorithm: sha256WithRSAEncryption
         6a:fe:24:ea:c6:89:5d:83:5d:81:44:d4:ab:2e:5f:95:cd:a2:
         8c:90:3f:17:a8:91:70:2d:f2:5e:15:d7:01:fe:14:1d:8f:90:
         1f:8b:d4:bf:6c:fb:38:a0:15:43:4a:54:4a:c4:8d:53:4b:d0:
         73:a4:84:bf:2b:44:20:c0:3c:d7:4d:1b:04:a5:c6:ba:12:76:
         36:11:a8:d4:93:e3:e7:d0:eb:ad:51:e3:88:6e:45:69:b2:70:
         37:17:bb:22:f7:d4:69:59:d9:43:26:93:bb:fd:5c:ff:da:fb:
         80:03:9c:19:38:98:d7:34:a3:41:21:88:53:e8:10:f2:46:30:
         97:23:0c:db:cd:de:e2:07:98:50:87:e0:25:05:2d:ae:09:da:
         54:d8:d7:8c:5c:61:ad:04:53:d6:88:c8:0a:0f:21:a2:44:00:
         8a:79:94:5a:68:ac:87:6e:49:d8:5d:66:89:12:52:d4:7d:09:
         10:5f:d3:b1:c6:82:91:b2:77:15:0f:5a:b6:5b:60:dc:32:a4:
         3f:15:da:43:ca:56:0c:37:7a:7b:50:32:b0:43:3d:84:53:40:
         00:95:93:42:d5:64:4b:42:2f:2c:ba:d7:7c:26:cb:79:a8:0d:
         c9:7f:cc:77:34:dd:1d:d3:74:24:56:12:f0:c6:62:aa:16:b4:
         65:fc:bf:0e:9e:1f:c2:f6:be:a4:61:be:76:82:ad:8c:07:82:
         6a:d9:de:e5:f3:cd:10:9b:ad:0e:60:cf:b7:39:b7:17:20:fe:
         19:f9:bb:67:1f:a3:9c:05:c2:4c:99:56:3e:57:51:9a:cd:ce:
         7e:2d:a8:7c:8e:fc:e4:83:0d:5f:9f:06:a0:48:fc:10:92:85:
         59:a2:af:68:df:8a:8f:88:af:24:f7:8b:3d:b8:64:f0:33:f5:
         56:2b:07:cd:0d:56:2e:bc:86:4b:18:6b:4c:bc:4d:84:cf:1b:
         53:f4:6b:5c:55:85:c4:d5:96:31:68:b4:1a:24:81:9b:aa:ce:
         fa:fc:cf:69:c2:c9:3d:3a:bd:7a:28:60:ce:5f:a7:f5:c4:85:
         d4:8a:3a:a5:7a:7d:f6:74:34:2d:fe:db:17:5a:62:98:24:fe:
         fa:6e:a7:6e:30:4e:16:03:a8:22:ca:4a:d1:66:11:d9:af:6c:
         85:aa:38:29:8d:7c:13:17:6a:3d:e0:5e:7d:49:0c:30:2d:a1:
         a9:16:1a:78:81:c5:4e:21:ef:82:eb:4d:cc:09:20:e4:c4:83:
         5a:d9:3a:bd:43:8b:36:2c:64:fa:6d:05:ed:6b:ef:a1:2a:cb:
         22:4e:1b:fe:e0:0a:ea:0b:b9:35:7a:9d:c6:85:29:a2:c4:18:
         58:79:e5:26:b4:b1:bf:a2
-----BEGIN CERTIFICATE-----
MIIFXzCCA0egAwIBAgIBDTANBgkqhkiG9w0BAQsFADBKMUgwRgYDVQQDDD9lc3RF
eGFtcGxlSHVnZVNVRElDQS52ZXJ5bG9uZ3dvdy5jaXNjbzEyMy40MDRuZXZlcmV4
aXN0ZWQuencyLTcwHhcNMTgxMjA2MTU1OTU2WhcNMzAxMTE4MTU1OTU2WjAUMRIw
EAYDVQQDDAkxMjcuMC4wLjEwggIiMA0GCSqGSIb3DQEBAQUAA4ICDwAwggIKAoIC
AQDkEPikFRNRDufMDxH+n5MeHcKT9DuDfHErM+GgletffcD4RcV/+w/zeed/QJv2
KHkE/1IuqkM+2OJycQK2yCzn7pnCugNtrQzlge1H3Dvptt/BC21oYfbVqq4S/YKj
6hlh/uec7TSBstQZx2MGf7Rsdm7V4SCmgjWWoRo16ibr9UH2DpMzb7BaWFqAwn67
OrwGFgEo4X6fOwpcNR4Pnhfqi12DawR2PMNpCKDPEyO7Xcat81uP/ii1KVl250Qd
RN2oevyMUDbzPHPun+5NTvpI2sVAscGr/J6rgojyPG2RBXxt3FEAF1LnAQM6GN8R
z/iNjM8q5RsGAKXoubMxA4NyN4gGuXDqreHIBs2iy5b2jyqf3pphs+fEPXJOmZ/R
Z8mnAQGTF7Md48PXB2F81Be6OdM1nY+XnQ1Tk0Eu8bZdbxTyO+Encyd/ClQfriml
+ENc+V7GAPoc9A/bQ4Z+EEXnkBqk0jmTgF5pC8p3ITzngajEL3GZPPljYmHOfbrZ
TofN+EZeNaCm+FbAIZavyx47zGrDruMsik6bQUXCW5tcr4bkPpN3kcatIyZ11RGa
CEu0VqfGpcHMdbNNuXamqPy0OGd3pTFvFbmtvkP2HeAZJRgFz4CNKDIbNe0xYUKo
41osG9plzcYkl3tMtcrm7sKLQnzY8nqivp0PrKMLW6gqDQIDAQABo4GFMIGCMAkG
A1UdEwQCMAAwCwYDVR0PBAQDAgXgMDsGA1UdEQQ0MDKCCWxvY2FsaG9zdIINaXA2
LWxvY2FsaG9zdIcEfwAAAYcQAAAAAAAAAAAAAAAAAAAAATArBgNVHR8EJDAiMCCg
HqAchhpodHRwOi8vZXhhbXBsZS5jb20vY3JsLnBlbTANBgkqhkiG9w0BAQsFAAOC
AgEAav4k6saJXYNdgUTUqy5flc2ijJA/F6iRcC3yXhXXAf4UHY+QH4vUv2z7OKAV
Q0pUSsSNU0vQc6SEvytEIMA8100bBKXGuhJ2NhGo1JPj59DrrVHjiG5FabJwNxe7
IvfUaVnZQyaTu/1c/9r7gAOcGTiY1zSjQSGIU+gQ8kYwlyMM283e4geYUIfgJQUt
rgnaVNjXjFxhrQRT1ojICg8hokQAinmUWmish25J2F1miRJS1H0JEF/TscaCkbJ3
FQ9atltg3DKkPxXaQ8pWDDd6e1AysEM9hFNAAJWTQtVkS0IvLLrXfCbLeagNyX/M
dzTdHdN0JFYS8MZiqha0Zfy/Dp4fwva+pGG+doKtjAeCatne5fPNEJutDmDPtzm3
FyD+Gfm7Zx+jnAXCTJlWPldRms3Ofi2ofI785IMNX58GoEj8EJKFWaKvaN+Kj4iv
JPeLPbhk8DP1VisHzQ1WLryGSxhrTLxNhM8bU/RrXFWFxNWWMWi0GiSBm6rO+vzP
acLJPTq9eihgzl+n9cSF1Io6pXp99nQ0Lf7bF1pimCT++m6nbjBOFgOoIspK0WYR
2a9shao4KY18ExdqPeBefUkMMC2hqRYaeIHFTiHvgutNzAkg5MSDWtk6vUOLNixk
+m0F7WvvoSrLIk4b/uAK6gu5NXqdxoUposQYWHnlJrSxv6I=
-----END CERTIFICATE-----
