Certificate:
    Data:
        Version: 3 (0x2)
        Serial Number: 11 (0xb)
    Signature Algorithm: sha256WithRSAEncryption
        Issuer: CN=estExampleHugeSUDICA.verylongwow.cisco123.404neverexisted.zw2-6
        Validity
            Not Before: Dec  6 15:59:50 2018 GMT
            Not After : Nov 18 15:59:50 2030 GMT
        Subject: CN=127.0.0.1
        Subject Public Key Info:
            Public Key Algorithm: rsaEncryption
                Public-Key: (4096 bit)
                Modulus:
                    00:c5:c4:e9:6e:be:e2:63:68:d1:8c:20:89:f1:f9:
                    9e:9a:89:78:6d:c9:f0:bb:c0:5f:7d:66:35:4e:34:
                    4a:7b:b7:42:bf:49:15:a5:a4:bf:33:f3:c6:d6:c6:
                    fe:45:d4:d5:91:9a:20:d2:88:f2:35:2a:87:bb:56:
                    26:d8:eb:a7:9f:f7:0d:e1:8c:e9:1d:ef:56:64:a2:
                    71:94:5c:00:24:e3:1b:25:8a:fb:07:e7:61:44:87:
                    83:2e:cb:d5:a1:0a:e7:1e:90:6c:b8:45:b1:48:13:
                    41:cb:7c:f4:12:b3:e1:9c:f4:18:95:36:79:71:87:
                    b7:7e:a8:80:8d:26:8c:97:bb:e4:4f:54:03:c8:c3:
                    47:cc:1d:5a:d6:0d:88:fe:3c:a9:2d:21:94:03:18:
                    20:a2:65:a3:a3:03:68:47:a5:04:d4:bb:dc:73:2b:
                    7f:3b:67:07:c5:66:09:8d:a4:fa:bb:96:d1:76:88:
                    28:ba:e9:39:aa:1e:0b:8b:0f:2f:dd:ba:1d:68:09:
                    aa:03:be:64:c6:3f:cd:b7:15:a6:da:08:0c:0b:01:
                    53:a5:dc:0c:48:d9:52:ae:43:e5:6c:ec:dd:45:45:
                    f9:13:3f:c6:72:da:7c:c8:c2:ee:a2:7d:ee:ce:11:
                    ca:75:f5:40:d5:91:bd:84:77:a0:3d:30:d2:49:5c:
                    08:62:ee:8d:57:47:43:b4:62:9f:80:32:b3:fe:bb:
                    cf:8a:51:4a:27:00:ec:1c:8b:4a:ae:9f:25:51:d9:
                    09:f2:3f:3c:70:82:3c:bb:72:03:96:71:03:c8:12:
                    ee:1f:47:1c:a1:26:47:a1:4d:88:96:84:21:ed:d9:
                    1b:7f:c3:ba:00:19:09:29:13:52:d0:1d:19:bd:9c:
                    95:eb:68:01:6a:3d:6b:cb:54:14:2a:c6:ed:39:0b:
                    25:a3:8f:0d:d0:e0:4e:a6:d8:71:cd:60:8c:b2:90:
                    33:4d:10:fc:52:a2:d9:ca:fa:cc:b3:9c:3e:3c:88:
                    c5:6e:51:71:d1:3a:1f:b8:ea:2d:72:ae:54:8b:7b:
                    83:72:a2:2d:9b:c6:21:11:2f:44:a2:cf:69:6a:93:
                    fd:6a:7c:10:2f:5a:16:de:47:f5:49:0a:76:75:90:
                    c3:72:16:ec:ba:c2:fc:5e:fc:80:85:9c:e4:76:d2:
                    be:7e:21:20:ac:b7:a0:83:e1:c7:2f:6b:67:96:ba:
                    19:90:55:af:6f:6a:ef:74:fd:af:d2:39:b2:43:4a:
                    af:1e:9f:4a:1e:cc:9c:f6:1f:6b:f7:74:c6:53:a0:
                    b8:52:5d:e7:94:cf:60:ca:b7:81:00:a5:f7:39:20:
                    cd:56:44:0f:cd:13:53:db:c3:a1:21:38:07:5e:37:
                    f8:c0:8d
                Exponent: 65537 (0x10001)
        X509v3 extensions:
            X509v3 Basic Constraints: 
                CA:FALSE
            X509v3 Key Usage: 
                Digital Signature, Non Repudiation, Key Encipherment
            X509v3 Subject Alternative Name: 
                DNS:localhost, DNS:ip6-localhost, IP Address:127.0.0.1, IP Address:0:0:0:0:0:0:0:1
            X509v3 CRL Distribution Points: 

                Full Name:
                  URI:http://example.com/crl.pem

    Signature Algorithm: sha256WithRSAEncryption
         90:4d:41:b9:87:e6:f1:40:79:00:0d:fe:96:c9:15:cb:e7:f0:
         6e:4f:42:6f:cc:bd:59:08:de:49:5b:12:4d:d1:85:a6:7e:3c:
         5a:6e:e6:c9:a1:3b:09:27:81:e6:99:d4:32:14:f3:38:ee:30:
         e7:53:f3:d5:80:14:16:d3:35:21:33:46:cb:9c:54:15:3c:10:
         58:8e:a7:b3:9b:52:39:87:e5:95:9f:17:1e:63:e2:1b:ef:99:
         1f:d7:3c:01:b2:ab:a0:f2:31:a2:de:d3:15:66:8b:7d:ec:2d:
         09:e1:27:fe:e2:93:48:ab:51:56:72:b5:a6:66:c4:a6:39:f6:
         10:3b:21:f1:e7:13:cc:4b:9f:94:d5:00:a4:74:63:b8:2f:53:
         f6:5a:e5:3b:8a:79:87:c8:01:5d:af:6c:32:d9:f1:7a:ce:66:
         c9:68:5d:25:9e:49:d3:c5:d1:54:92:f1:00:6a:ac:28:9b:fd:
         93:ae:df:19:bf:47:b7:70:4d:bc:b6:1b:a6:66:5b:cf:7b:f8:
         52:8f:5b:cb:ef:a4:4d:d1:3b:4e:d8:d9:09:7f:03:aa:ff:b2:
         7a:67:49:44:3b:93:02:cf:cd:1f:43:f8:41:41:75:25:01:52:
         d1:3f:13:43:fb:40:61:46:9b:31:b3:8c:fa:09:59:47:90:99:
         b0:80:0d:d5:13:67:6b:da:91:e3:29:50:88:3d:e5:49:98:f3:
         7e:c0:52:d4:d2:6e:c6:b3:27:8f:26:91:d4:ca:11:55:55:98:
         97:96:63:77:ca:7e:af:2f:fc:1a:96:89:76:9e:cb:47:2b:71:
         79:f3:6b:6b:e4:2e:67:04:99:bf:d3:14:f3:78:40:1b:2e:fd:
         2e:58:28:8a:67:c9:6a:02:da:8d:f1:ff:b1:0a:3d:1d:e7:7d:
         ef:0b:04:60:a2:75:28:1e:a9:f9:87:e3:df:33:59:09:d2:fb:
         df:7e:e3:45:4a:3e:c5:73:95:18:1e:6b:10:cb:a4:f7:0e:cb:
         06:e0:07:ed:4d:24:3a:c3:c8:53:5f:8b:45:9b:ee:ca:64:de:
         23:24:7f:4f:e1:67:40:33:2f:ed:35:f3:5b:21:82:3e:df:ee:
         7b:e3:4c:ee:c7:e3:6a:08:00:39:95:a4:f2:63:45:00:7e:c6:
         f3:fb:3b:bb:53:48:19:80:55:2d:97:48:89:21:b3:e3:e4:1f:
         49:8e:26:94:02:6b:07:f8:f8:c6:e1:a5:12:1c:57:a9:4f:e1:
         13:97:8d:28:32:88:13:6b:52:b3:af:1c:cf:80:43:e6:de:a8:
         d2:9c:98:ac:e9:67:86:7b:13:52:98:cb:2d:89:33:63:8c:0d:
         12:40:f3:05:fb:53:ee:03
-----BEGIN CERTIFICATE-----
MIIFXzCCA0egAwIBAgIBCzANBgkqhkiG9w0BAQsFADBKMUgwRgYDVQQDDD9lc3RF
eGFtcGxlSHVnZVNVRElDQS52ZXJ5bG9uZ3dvdy5jaXNjbzEyMy40MDRuZXZlcmV4
aXN0ZWQuencyLTYwHhcNMTgxMjA2MTU1OTUwWhcNMzAxMTE4MTU1OTUwWjAUMRIw
EAYDVQQDDAkxMjcuMC4wLjEwggIiMA0GCSqGSIb3DQEBAQUAA4ICDwAwggIKAoIC
AQDFxOluvuJjaNGMIInx+Z6aiXhtyfC7wF99ZjVONEp7t0K/SRWlpL8z88bWxv5F
1NWRmiDSiPI1Koe7VibY66ef9w3hjOkd71ZkonGUXAAk4xslivsH52FEh4Muy9Wh
CucekGy4RbFIE0HLfPQSs+Gc9BiVNnlxh7d+qICNJoyXu+RPVAPIw0fMHVrWDYj+
PKktIZQDGCCiZaOjA2hHpQTUu9xzK387ZwfFZgmNpPq7ltF2iCi66TmqHguLDy/d
uh1oCaoDvmTGP823FabaCAwLAVOl3AxI2VKuQ+Vs7N1FRfkTP8Zy2nzIwu6ife7O
Ecp19UDVkb2Ed6A9MNJJXAhi7o1XR0O0Yp+AMrP+u8+KUUonAOwci0qunyVR2Qny
Pzxwgjy7cgOWcQPIEu4fRxyhJkehTYiWhCHt2Rt/w7oAGQkpE1LQHRm9nJXraAFq
PWvLVBQqxu05CyWjjw3Q4E6m2HHNYIyykDNNEPxSotnK+syznD48iMVuUXHROh+4
6i1yrlSLe4Nyoi2bxiERL0Siz2lqk/1qfBAvWhbeR/VJCnZ1kMNyFuy6wvxe/ICF
nOR20r5+ISCst6CD4ccva2eWuhmQVa9vau90/a/SObJDSq8en0oezJz2H2v3dMZT
oLhSXeeUz2DKt4EApfc5IM1WRA/NE1Pbw6EhOAdeN/jAjQIDAQABo4GFMIGCMAkG
A1UdEwQCMAAwCwYDVR0PBAQDAgXgMDsGA1UdEQQ0MDKCCWxvY2FsaG9zdIINaXA2
LWxvY2FsaG9zdIcEfwAAAYcQAAAAAAAAAAAAAAAAAAAAATArBgNVHR8EJDAiMCCg
HqAchhpodHRwOi8vZXhhbXBsZS5jb20vY3JsLnBlbTANBgkqhkiG9w0BAQsFAAOC
AgEAkE1BuYfm8UB5AA3+lskVy+fwbk9Cb8y9WQjeSVsSTdGFpn48Wm7myaE7CSeB
5pnUMhTzOO4w51Pz1YAUFtM1ITNGy5xUFTwQWI6ns5tSOYfllZ8XHmPiG++ZH9c8
AbKroPIxot7TFWaLfewtCeEn/uKTSKtRVnK1pmbEpjn2EDsh8ecTzEuflNUApHRj
uC9T9lrlO4p5h8gBXa9sMtnxes5myWhdJZ5J08XRVJLxAGqsKJv9k67fGb9Ht3BN
vLYbpmZbz3v4Uo9by++kTdE7TtjZCX8Dqv+yemdJRDuTAs/NH0P4QUF1JQFS0T8T
Q/tAYUabMbOM+glZR5CZsIAN1RNna9qR4ylQiD3lSZjzfsBS1NJuxrMnjyaR1MoR
VVWYl5Zjd8p+ry/8GpaJdp7LRytxefNra+QuZwSZv9MU83hAGy79LlgoimfJagLa
jfH/sQo9Hed97wsEYKJ1KB6p+Yfj3zNZCdL7337jRUo+xXOVGB5rEMuk9w7LBuAH
7U0kOsPIU1+LRZvuymTeIyR/T+FnQDMv7TXzWyGCPt/ue+NM7sfjaggAOZWk8mNF
AH7G8/s7u1NIGYBVLZdIiSGz4+QfSY4mlAJrB/j4xuGlEhxXqU/hE5eNKDKIE2tS
s68cz4BD5t6o0pyYrOlnhnsTUpjLLYkzY4wNEkDzBftT7gM=
-----END CERTIFICATE-----
