Certificate:
    Data:
        Version: 3 (0x2)
        Serial Number: 3 (0x3)
    Signature Algorithm: ecdsa-with-SHA256
        Issuer: CN=estExampleSUDICA1-1
        Validity
            Not Before: Dec  6 15:59:37 2018 GMT
            Not After : Nov 18 15:59:37 2030 GMT
        Subject: CN=127.0.0.1
        Subject Public Key Info:
            Public Key Algorithm: id-ecPublicKey
                Public-Key: (256 bit)
                pub: 
                    04:26:c1:e7:4a:b9:bc:98:68:4b:44:e4:d7:26:f5:
                    49:71:2c:02:dc:b5:c3:a5:e5:8f:a0:f5:b6:3e:c0:
                    91:8d:89:b1:fd:b1:fb:57:27:e9:b0:b0:1f:b7:22:
                    3f:91:9c:d4:a1:8c:51:f5:a4:4a:34:a5:12:ab:b1:
                    c6:c7:78:85:65
                ASN1 OID: prime256v1
                NIST CURVE: P-256
        X509v3 extensions:
            X509v3 Basic Constraints: 
                CA:FALSE
            X509v3 Key Usage: 
                Digital Signature, Non Repudiation, Key Encipherment
            X509v3 Subject Alternative Name: 
                DNS:localhost, DNS:ip6-localhost, IP Address:127.0.0.1, IP Address:0:0:0:0:0:0:0:1
            X509v3 CRL Distribution Points: 

                Full Name:
                  URI:http://example.com/crl.pem

    Signature Algorithm: ecdsa-with-SHA256
         30:45:02:20:2a:6c:86:e2:f0:91:08:68:c3:1d:83:7f:16:d8:
         b6:61:95:85:7b:d2:b0:b4:63:b8:6b:ea:a3:0b:26:93:8d:3e:
         02:21:00:d0:0f:05:fd:6d:bc:ac:b8:b2:05:40:99:88:8a:51:
         d5:d1:a6:68:37:8f:77:76:3c:cc:76:89:d6:37:44:93:16
-----BEGIN CERTIFICATE-----
MIIBpzCCAU2gAwIBAgIBAzAKBggqhkjOPQQDAjAeMRwwGgYDVQQDDBNlc3RFeGFt
cGxlU1VESUNBMS0xMB4XDTE4MTIwNjE1NTkzN1oXDTMwMTExODE1NTkzN1owFDES
MBAGA1UEAwwJMTI3LjAuMC4xMFkwEwYHKoZIzj0CAQYIKoZIzj0DAQcDQgAEJsHn
Srm8mGhLROTXJvVJcSwC3LXDpeWPoPW2PsCRjYmx/bH7VyfpsLAftyI/kZzUoYxR
9aRKNKUSq7HGx3iFZaOBhTCBgjAJBgNVHRMEAjAAMAsGA1UdDwQEAwIF4DA7BgNV
HREENDAygglsb2NhbGhvc3SCDWlwNi1sb2NhbGhvc3SHBH8AAAGHEAAAAAAAAAAA
AAAAAAAAAAEwKwYDVR0fBCQwIjAgoB6gHIYaaHR0cDovL2V4YW1wbGUuY29tL2Ny
bC5wZW0wCgYIKoZIzj0EAwIDSAAwRQIgKmyG4vCRCGjDHYN/Fti2YZWFe9KwtGO4
a+qjCyaTjT4CIQDQDwX9bbysuLIFQJmIilHV0aZoN493djzMdonWN0STFg==
-----END CERTIFICATE-----
