-----BEGIN CERTIFICATE-----
MIIBZzCCAQ2gAwIBAgIUH+VFHk3W53/0OQtRUd2slB82tHkwCgYIKoZIzj0EAwIw
GzEZMBcGA1UEAwwQZXN0RXhhbXBsZVNVRElDQTAeFw0yMDAxMjIxMzQwMjdaFw00
MDAxMjIxMzQwMjdaMBsxGTAXBgNVBAMMEGVzdEV4YW1wbGVTVURJQ0EwWTATBgcq
hkjOPQIBBggqhkjOPQMBBwNCAARLYgF0TOy8BX+48TAR0NGF9PzDrFkzzA37cOxp
SPVzXQnPwRrcIoZIY0pSQqPDtUD2E55eXMo1w4qQCM0ttVhJoy8wLTAMBgNVHRME
BTADAQH/MB0GA1UdDgQWBBTzXx9R6fiIGf5zBnZszjQJ7sBi+zAKBggqhkjOPQQD
AgNIADBFAiA4Jxtxa8eDB4CsSHsTBaCPiD8JTVCl4+hncDQCWHjBfwIhANjc4pzy
hH1Fwxy1IOMhQD01cSNgOMKzCuH0g2DXRg/9
-----END CERTIFICATE-----
Certificate:
    Data:
        Version: 3 (0x2)
        Serial Number: 1 (0x1)
        Signature Algorithm: ecdsa-with-SHA256
        Issuer: CN=estExampleSUDICA
        Validity
            Not Before: Jan 22 13:40:27 2020 GMT
            Not After : Jan  4 13:40:27 2032 GMT
        Subject: CN=estExampleSUDICA1-0
        Subject Public Key Info:
            Public Key Algorithm: id-ecPublicKey
                Public-Key: (256 bit)
                pub:
                    04:4b:17:35:a9:61:76:e2:db:c8:8f:70:80:7f:34:
                    ee:a8:95:0d:a5:71:ed:e7:5f:91:d7:1d:a6:b6:89:
                    16:ba:51:74:ab:32:50:96:55:e2:b6:18:13:9a:62:
                    07:10:81:95:24:d1:31:71:a2:dd:f7:d1:31:33:bd:
                    ca:a7:e3:a7:85
                ASN1 OID: prime256v1
                NIST CURVE: P-256
        X509v3 extensions:
            X509v3 Basic Constraints: 
                CA:TRUE
            X509v3 Key Usage: 
                Certificate Sign
            X509v3 CRL Distribution Points: 

                Full Name:
                  URI:http://example.com/crl.pem

            X509v3 Subject Key Identifier: 
                DD:FF:51:0A:28:CE:9C:E5:7D:03:8D:6F:FF:7A:1A:F0:63:48:29:86
            X509v3 Authority Key Identifier: 
                keyid:F3:5F:1F:51:E9:F8:88:19:FE:73:06:76:6C:CE:34:09:EE:C0:62:FB

    Signature Algorithm: ecdsa-with-SHA256
         30:45:02:21:00:f0:ad:88:a4:d2:b2:6e:51:ae:0a:dc:38:d2:
         4d:c2:82:60:6f:74:63:d2:af:76:7d:cf:d4:5d:1a:55:b3:a8:
         4d:02:20:72:f6:21:19:28:7c:c3:b1:41:8d:5e:99:c1:73:9d:
         f6:7d:c8:ec:78:88:ce:83:36:46:e7:96:1e:2f:8d:a0:19
-----BEGIN CERTIFICATE-----
MIIBtDCCAVqgAwIBAgIBATAKBggqhkjOPQQDAjAbMRkwFwYDVQQDDBBlc3RFeGFt
cGxlU1VESUNBMB4XDTIwMDEyMjEzNDAyN1oXDTMyMDEwNDEzNDAyN1owHjEcMBoG
A1UEAwwTZXN0RXhhbXBsZVNVRElDQTEtMDBZMBMGByqGSM49AgEGCCqGSM49AwEH
A0IABEsXNalhduLbyI9wgH807qiVDaVx7edfkdcdpraJFrpRdKsyUJZV4rYYE5pi
BxCBlSTRMXGi3ffRMTO9yqfjp4WjgYswgYgwDAYDVR0TBAUwAwEB/zALBgNVHQ8E
BAMCAgQwKwYDVR0fBCQwIjAgoB6gHIYaaHR0cDovL2V4YW1wbGUuY29tL2NybC5w
ZW0wHQYDVR0OBBYEFN3/UQoozpzlfQONb/96GvBjSCmGMB8GA1UdIwQYMBaAFPNf
H1Hp+IgZ/nMGdmzONAnuwGL7MAoGCCqGSM49BAMCA0gAMEUCIQDwrYik0rJuUa4K
3DjSTcKCYG90Y9Kvdn3P1F0aVbOoTQIgcvYhGSh8w7FBjV6ZwXOd9n3I7HiIzoM2
RueWHi+NoBk=
-----END CERTIFICATE-----
Certificate:
    Data:
        Version: 3 (0x2)
        Serial Number: 2 (0x2)
        Signature Algorithm: ecdsa-with-SHA256
        Issuer: CN=estExampleSUDICA1-0
        Validity
            Not Before: Jan 22 13:40:27 2020 GMT
            Not After : Jan  4 13:40:27 2032 GMT
        Subject: CN=estExampleSUDICA1-1
        Subject Public Key Info:
            Public Key Algorithm: id-ecPublicKey
                Public-Key: (256 bit)
                pub:
                    04:72:6f:bb:45:17:ae:33:87:e3:58:d2:d7:bb:9b:
                    86:0d:87:c7:f6:4e:54:59:e0:da:c2:d3:22:e5:a5:
                    2b:d3:52:dc:4a:ac:b1:bd:cb:35:ff:74:2c:f6:d1:
                    44:78:cf:f9:f0:21:bd:fe:3f:3e:14:2e:f9:99:b8:
                    ef:8e:ac:8b:49
                ASN1 OID: prime256v1
                NIST CURVE: P-256
        X509v3 extensions:
            X509v3 Basic Constraints: 
                CA:TRUE
            X509v3 Key Usage: 
                Certificate Sign
            X509v3 CRL Distribution Points: 

                Full Name:
                  URI:http://example.com/crl.pem

            X509v3 Subject Key Identifier: 
                DF:95:AC:85:C2:AF:09:24:B6:F5:07:73:77:D3:25:85:74:59:4C:5C
            X509v3 Authority Key Identifier: 
                keyid:DD:FF:51:0A:28:CE:9C:E5:7D:03:8D:6F:FF:7A:1A:F0:63:48:29:86

    Signature Algorithm: ecdsa-with-SHA256
         30:45:02:20:20:d1:3f:0d:62:ec:ae:d1:3b:d8:fd:ee:11:ef:
         75:1e:ac:1c:81:64:d4:f0:90:00:97:fb:bc:08:b6:ec:10:a5:
         02:21:00:f8:0e:2d:ae:20:db:bd:9d:8f:bb:da:3a:0e:5b:ec:
         61:69:f5:43:ab:d9:4a:03:15:55:84:a0:94:bb:be:cc:aa
-----BEGIN CERTIFICATE-----
MIIBtzCCAV2gAwIBAgIBAjAKBggqhkjOPQQDAjAeMRwwGgYDVQQDDBNlc3RFeGFt
cGxlU1VESUNBMS0wMB4XDTIwMDEyMjEzNDAyN1oXDTMyMDEwNDEzNDAyN1owHjEc
MBoGA1UEAwwTZXN0RXhhbXBsZVNVRElDQTEtMTBZMBMGByqGSM49AgEGCCqGSM49
AwEHA0IABHJvu0UXrjOH41jS17ubhg2Hx/ZOVFng2sLTIuWlK9NS3Eqssb3LNf90
LPbRRHjP+fAhvf4/PhQu+Zm4746si0mjgYswgYgwDAYDVR0TBAUwAwEB/zALBgNV
HQ8EBAMCAgQwKwYDVR0fBCQwIjAgoB6gHIYaaHR0cDovL2V4YW1wbGUuY29tL2Ny
bC5wZW0wHQYDVR0OBBYEFN+VrIXCrwkktvUHc3fTJYV0WUxcMB8GA1UdIwQYMBaA
FN3/UQoozpzlfQONb/96GvBjSCmGMAoGCCqGSM49BAMCA0gAMEUCICDRPw1i7K7R
O9j97hHvdR6sHIFk1PCQAJf7vAi27BClAiEA+A4triDbvZ2Pu9o6DlvsYWn1Q6vZ
SgMVVYSglLu+zKo=
-----END CERTIFICATE-----
