Certificate:
    Data:
        Version: 3 (0x2)
        Serial Number: 954 (0x3ba)
    Signature Algorithm: ecdsa-with-SHA1
        Issuer: CN=estExampleCA
        Validity
            Not Before: Nov  6 18:17:38 2014 GMT
            Not After : Jan 23 18:17:38 2023 GMT
        Subject: CN=127.0.0.1
        Subject Public Key Info:
            Public Key Algorithm: rsaEncryption
                Public-Key: (2048 bit)
                Modulus:
                    00:f8:f9:4e:2b:f2:b3:51:6b:e9:14:f6:09:64:07:
                    e2:5c:02:25:fb:f6:d7:cd:94:c3:32:02:c7:42:a6:
                    a6:c5:ca:ec:2e:97:51:16:b2:e3:fa:09:05:1d:17:
                    97:89:f2:d8:39:22:59:8b:9a:c0:fe:0f:e5:b0:29:
                    2b:78:aa:20:46:d8:88:57:f2:97:d5:2c:24:04:16:
                    9c:43:19:ac:fb:f7:c8:4c:29:4e:05:9c:48:8a:d1:
                    57:ad:72:0e:fd:91:72:03:48:9d:4c:6f:16:ca:64:
                    f8:ab:67:91:4c:2e:27:04:2f:f2:33:54:d2:85:43:
                    17:fa:a4:4e:8c:2b:99:d7:0d:2d:88:bc:41:91:ec:
                    3f:81:69:bb:a1:c1:88:4c:0f:ca:ed:a3:41:5c:66:
                    e3:41:8b:5e:4c:e1:ed:f0:69:53:3b:c3:f9:4f:da:
                    99:fd:c2:e7:dc:df:b1:9d:25:b6:75:4d:ae:92:f9:
                    d1:94:7c:00:34:4a:ff:66:47:e8:9a:52:6f:5c:bc:
                    87:6f:ac:76:0a:ba:d3:b4:36:52:5d:ab:ed:9c:bf:
                    7c:d2:a6:9c:c4:d9:08:46:96:be:24:7c:66:ba:80:
                    19:7f:7e:e4:cf:b2:7e:56:c6:b7:42:1e:b2:d1:b8:
                    0e:41:aa:13:b6:48:0e:2f:a1:36:ab:bf:7b:0a:87:
                    76:35
                Exponent: 65537 (0x10001)
        X509v3 extensions:
            X509v3 Basic Constraints: 
                CA:FALSE
            X509v3 Subject Key Identifier: 
                B8:82:44:F3:70:52:9F:A3:DA:9B:45:BC:04:03:18:C7:28:D3:5E:9E
            X509v3 Authority Key Identifier: 
                keyid:66:E5:56:CA:93:2B:02:0B:57:A4:D4:E2:ED:5F:CA:A4:EE:7D:83:F9

            X509v3 Extended Key Usage: critical
                TLS Web Server Authentication, TLS Web Client Authentication, 1.3.6.1.5.5.7.3.28
    Signature Algorithm: ecdsa-with-SHA1
         30:46:02:21:00:fd:83:ab:3c:f7:91:92:8c:3b:e7:40:21:0e:
         1b:0e:93:03:1d:5f:b7:e9:ce:e9:45:02:25:6d:2a:1d:e3:fe:
         07:02:21:00:f5:a3:4d:f6:88:2c:1a:2a:ba:19:50:98:ed:d8:
         de:06:64:42:a3:9a:1f:07:95:1f:61:83:ba:9a:e3:dd:4b:92
-----BEGIN CERTIFICATE-----
MIICXjCCAgSgAwIBAgICA7owCQYHKoZIzj0EATAXMRUwEwYDVQQDEwxlc3RFeGFt
cGxlQ0EwHhcNMTQxMTA2MTgxNzM4WhcNMjMwMTIzMTgxNzM4WjAUMRIwEAYDVQQD
EwkxMjcuMC4wLjEwggEiMA0GCSqGSIb3DQEBAQUAA4IBDwAwggEKAoIBAQD4+U4r
8rNRa+kU9glkB+JcAiX79tfNlMMyAsdCpqbFyuwul1EWsuP6CQUdF5eJ8tg5IlmL
msD+D+WwKSt4qiBG2IhX8pfVLCQEFpxDGaz798hMKU4FnEiK0Vetcg79kXIDSJ1M
bxbKZPirZ5FMLicEL/IzVNKFQxf6pE6MK5nXDS2IvEGR7D+BabuhwYhMD8rto0Fc
ZuNBi15M4e3waVM7w/lP2pn9wufc37GdJbZ1Ta6S+dGUfAA0Sv9mR+iaUm9cvIdv
rHYKutO0NlJdq+2cv3zSppzE2QhGlr4kfGa6gBl/fuTPsn5WxrdCHrLRuA5BqhO2
SA4voTarv3sKh3Y1AgMBAAGjeTB3MAkGA1UdEwQCMAAwHQYDVR0OBBYEFLiCRPNw
Up+j2ptFvAQDGMco016eMB8GA1UdIwQYMBaAFGblVsqTKwILV6TU4u1fyqTufYP5
MCoGA1UdJQEB/wQgMB4GCCsGAQUFBwMBBggrBgEFBQcDAgYIKwYBBQUHAxwwCQYH
KoZIzj0EAQNJADBGAiEA/YOrPPeRkow750AhDhsOkwMdX7fpzulFAiVtKh3j/gcC
IQD1o032iCwaKroZUJjt2N4GZEKjmh8HlR9hg7qa491Lkg==
-----END CERTIFICATE-----
