Certificate:
    Data:
        Version: 3 (0x2)
        Serial Number: 885 (0x375)
    Signature Algorithm: ecdsa-with-SHA1
        Issuer: CN=estExampleCA
        Validity
            Not Before: Jul 14 21:49:46 2015 GMT
            Not After : Jun 26 21:49:46 2027 GMT
        Subject: CN=RSA Valid CSR
        Subject Public Key Info:
            Public Key Algorithm: rsaEncryption
                Public-Key: (2048 bit)
                Modulus:
                    00:d2:a7:f5:7f:db:21:50:40:df:62:8e:8b:a5:a4:
                    a0:3e:e0:0b:ac:a1:1d:fc:ff:a1:87:d9:53:c2:46:
                    c2:50:8f:36:d5:9d:6a:3b:b3:9c:77:72:ac:e5:18:
                    b0:24:f2:7c:a9:06:35:c7:12:ab:ac:2e:e9:e5:ac:
                    40:66:d6:cb:5a:24:2b:f4:2e:3a:2e:28:73:52:74:
                    1a:dd:bb:90:5a:55:57:46:fe:2c:5f:60:4d:0d:9b:
                    f0:97:bb:05:cd:bd:0a:fc:ff:96:48:1f:7a:7c:3e:
                    31:e7:7e:f0:6f:e1:10:a3:24:1e:fc:b0:9c:c1:bc:
                    ba:cb:10:da:7a:4e:a0:45:8e:b4:46:04:79:11:11:
                    50:f9:98:c7:89:93:73:03:ac:3c:81:bb:62:ae:b1:
                    8f:0f:cc:0c:cb:a6:03:63:3a:5b:8b:fc:6c:0e:1c:
                    02:13:2a:0a:71:69:b8:7f:da:e5:52:d4:3a:2f:57:
                    21:24:9e:58:e2:9e:b7:57:fd:27:b1:98:70:98:f2:
                    8a:18:14:27:ab:fd:ad:fe:f5:56:60:96:31:ba:c9:
                    04:99:db:95:50:21:88:22:fc:25:fc:f4:5a:ae:c4:
                    0e:e1:f5:84:64:41:6f:5b:6c:a3:29:b8:42:59:93:
                    c0:e6:4f:9a:49:23:92:a1:37:41:71:55:3c:2d:58:
                    58:b5
                Exponent: 65537 (0x10001)
        X509v3 extensions:
            X509v3 Basic Constraints: 
                CA:FALSE
            X509v3 Subject Key Identifier: 
                7D:D2:38:BC:A6:DD:C9:5F:71:E2:53:8E:25:73:90:A8:9C:93:C0:7D
            X509v3 Authority Key Identifier: 
                keyid:66:E5:56:CA:93:2B:02:0B:57:A4:D4:E2:ED:5F:CA:A4:EE:7D:83:F9

    Signature Algorithm: ecdsa-with-SHA1
         30:45:02:21:00:8a:4f:a8:a3:ae:56:cb:e2:a8:07:cb:d4:2c:
         82:03:9c:52:44:65:a1:d3:72:fd:5d:95:bb:3d:06:0f:9d:d6:
         69:02:20:76:f4:af:3c:d2:b7:23:1e:87:53:95:b5:23:30:61:
         55:0d:ae:0f:af:7e:de:66:bf:83:58:52:f2:c5:31:b1:67
-----BEGIN CERTIFICATE-----
MIICNTCCAdygAwIBAgICA3UwCQYHKoZIzj0EATAXMRUwEwYDVQQDEwxlc3RFeGFt
cGxlQ0EwHhcNMTUwNzE0MjE0OTQ2WhcNMjcwNjI2MjE0OTQ2WjAYMRYwFAYDVQQD
DA1SU0EgVmFsaWQgQ1NSMIIBIjANBgkqhkiG9w0BAQEFAAOCAQ8AMIIBCgKCAQEA
0qf1f9shUEDfYo6LpaSgPuALrKEd/P+hh9lTwkbCUI821Z1qO7Ocd3Ks5RiwJPJ8
qQY1xxKrrC7p5axAZtbLWiQr9C46LihzUnQa3buQWlVXRv4sX2BNDZvwl7sFzb0K
/P+WSB96fD4x537wb+EQoyQe/LCcwby6yxDaek6gRY60RgR5ERFQ+ZjHiZNzA6w8
gbtirrGPD8wMy6YDYzpbi/xsDhwCEyoKcWm4f9rlUtQ6L1chJJ5Y4p63V/0nsZhw
mPKKGBQnq/2t/vVWYJYxuskEmduVUCGIIvwl/PRarsQO4fWEZEFvW2yjKbhCWZPA
5k+aSSOSoTdBcVU8LVhYtQIDAQABo00wSzAJBgNVHRMEAjAAMB0GA1UdDgQWBBR9
0ji8pt3JX3HiU44lc5ConJPAfTAfBgNVHSMEGDAWgBRm5VbKkysCC1ek1OLtX8qk
7n2D+TAJBgcqhkjOPQQBA0gAMEUCIQCKT6ijrlbL4qgHy9QsggOcUkRlodNy/V2V
uz0GD53WaQIgdvSvPNK3Ix6HU5W1IzBhVQ2uD69+3ma/g1hS8sUxsWc=
-----END CERTIFICATE-----

