Certificate:
    Data:
        Version: 3 (0x2)
        Serial Number: 1162 (0x48a)
    Signature Algorithm: ecdsa-with-SHA1
        Issuer: CN=estExampleCA
        Validity
            Not Before: Aug  3 22:47:33 2015 GMT
            Not After : Jul 16 22:47:33 2027 GMT
        Subject: CN=example.com
        Subject Public Key Info:
            Public Key Algorithm: rsaEncryption
                Public-Key: (2048 bit)
                Modulus:
                    00:d8:d8:77:1b:7b:70:9e:72:47:64:cf:03:35:44:
                    91:62:50:0e:17:cc:91:a3:b0:26:3e:10:fa:08:ad:
                    bb:1b:64:e0:3e:4f:d5:aa:94:0d:17:94:74:2b:bf:
                    5b:52:76:56:f2:85:f8:b9:c7:48:3a:cc:c4:ae:2e:
                    95:f3:7f:41:2e:fa:ab:5c:44:d6:74:4a:65:b1:bc:
                    ad:4c:2b:17:af:81:64:3f:ee:45:6c:8c:2d:86:41:
                    24:f6:b2:82:ee:e6:91:14:08:83:3e:27:ea:32:cf:
                    23:cd:91:4d:cf:0e:62:5d:23:60:cf:82:b4:ca:c7:
                    0d:60:eb:75:b8:7f:b2:34:71:06:1e:bd:d7:49:ac:
                    27:10:cd:1f:63:e4:2a:55:13:96:aa:66:df:ae:f4:
                    c2:bd:69:2c:2b:f1:d9:20:89:b3:31:c3:37:da:02:
                    df:09:67:43:62:0f:c7:0f:d3:09:79:3a:b4:88:89:
                    82:c1:5b:af:02:32:cd:2f:dc:48:ba:54:a4:b7:54:
                    60:a8:1c:07:f9:1d:ed:db:f7:f7:7c:b3:ec:48:be:
                    94:e6:cc:53:40:20:6c:98:f0:58:e5:89:f3:27:6e:
                    45:51:a9:f4:8d:b0:be:ac:1f:c3:83:c7:f2:7a:02:
                    20:d5:7f:a3:37:09:70:7e:e1:a4:93:4d:aa:21:c5:
                    67:b5
                Exponent: 65537 (0x10001)
        X509v3 extensions:
            X509v3 Basic Constraints: 
                CA:FALSE
            X509v3 Subject Key Identifier: 
                F8:10:11:5C:9C:02:78:E6:A6:69:FE:0F:2D:FD:DA:FA:1F:45:F9:6E
            X509v3 Authority Key Identifier: 
                keyid:66:E5:56:CA:93:2B:02:0B:57:A4:D4:E2:ED:5F:CA:A4:EE:7D:83:F9

            X509v3 Subject Alternative Name: 
                DNS:example.com
    Signature Algorithm: ecdsa-with-SHA1
         30:46:02:21:00:b0:34:b7:27:33:8b:b5:86:2f:9f:d3:7a:0a:
         22:97:5a:50:5d:ce:57:e2:ed:60:8c:b0:f5:4a:c5:94:b0:3e:
         c0:02:21:00:d4:38:c6:de:25:67:fc:7e:b2:01:a4:21:01:fa:
         63:34:70:ee:d7:e0:ea:8f:58:b1:db:9c:65:da:de:15:e3:80
-----BEGIN CERTIFICATE-----
MIICTDCCAfKgAwIBAgICBIowCQYHKoZIzj0EATAXMRUwEwYDVQQDEwxlc3RFeGFt
cGxlQ0EwHhcNMTUwODAzMjI0NzMzWhcNMjcwNzE2MjI0NzMzWjAWMRQwEgYDVQQD
DAtleGFtcGxlLmNvbTCCASIwDQYJKoZIhvcNAQEBBQADggEPADCCAQoCggEBANjY
dxt7cJ5yR2TPAzVEkWJQDhfMkaOwJj4Q+gituxtk4D5P1aqUDReUdCu/W1J2VvKF
+LnHSDrMxK4ulfN/QS76q1xE1nRKZbG8rUwrF6+BZD/uRWyMLYZBJPaygu7mkRQI
gz4n6jLPI82RTc8OYl0jYM+CtMrHDWDrdbh/sjRxBh6910msJxDNH2PkKlUTlqpm
3670wr1pLCvx2SCJszHDN9oC3wlnQ2IPxw/TCXk6tIiJgsFbrwIyzS/cSLpUpLdU
YKgcB/kd7dv393yz7Ei+lObMU0AgbJjwWOWJ8yduRVGp9I2wvqwfw4PH8noCINV/
ozcJcH7hpJNNqiHFZ7UCAwEAAaNlMGMwCQYDVR0TBAIwADAdBgNVHQ4EFgQU+BAR
XJwCeOamaf4PLf3a+h9F+W4wHwYDVR0jBBgwFoAUZuVWypMrAgtXpNTi7V/KpO59
g/kwFgYDVR0RBA8wDYILZXhhbXBsZS5jb20wCQYHKoZIzj0EAQNJADBGAiEAsDS3
JzOLtYYvn9N6CiKXWlBdzlfi7WCMsPVKxZSwPsACIQDUOMbeJWf8frIBpCEB+mM0
cO7X4OqPWLHbnGXa3hXjgA==
-----END CERTIFICATE-----

