Certificate:
    Data:
        Version: 3 (0x2)
        Serial Number: 1165 (0x48d)
    Signature Algorithm: ecdsa-with-SHA1
        Issuer: CN=estExampleCA
        Validity
            Not Before: Aug  3 23:17:19 2015 GMT
            Not After : Jul 16 23:17:19 2027 GMT
        Subject: CN=example.com
        Subject Public Key Info:
            Public Key Algorithm: rsaEncryption
                Public-Key: (2048 bit)
                Modulus:
                    00:b9:47:38:ba:65:71:e9:ba:9d:34:28:96:ac:c4:
                    7a:fa:49:52:40:c5:99:6d:a7:09:96:f3:65:d6:44:
                    db:c8:51:72:8d:6a:c8:8e:35:b3:74:32:1d:dd:fa:
                    29:f8:a9:e8:7f:d2:80:d5:09:30:12:26:16:b6:b2:
                    09:9e:16:aa:15:b1:7a:48:b9:1a:46:85:06:3e:78:
                    6a:d1:1e:b5:64:70:fa:53:07:da:88:97:a8:64:9f:
                    11:15:4f:3b:44:89:89:1a:11:a0:e0:7c:e9:2e:58:
                    bd:d9:45:60:c9:ed:b5:7e:0b:d4:35:8c:2a:c3:c6:
                    89:58:24:60:4d:33:60:39:a2:58:57:ea:9d:95:ef:
                    6e:a2:11:8c:0d:e5:c7:bc:d8:71:11:a5:aa:71:d1:
                    f3:ce:e5:a1:c3:cb:6c:c0:33:c0:57:65:5a:41:b1:
                    f0:d3:be:c7:ca:dd:78:c8:87:e9:12:fb:0f:c6:f1:
                    4a:de:45:93:05:7d:4a:44:f9:db:64:20:bf:09:8f:
                    12:e7:1e:65:57:c9:7c:6e:12:84:a8:4c:f8:32:f6:
                    99:0f:7a:65:da:22:c2:89:9e:b9:5f:2a:40:2b:2a:
                    54:df:f8:20:a5:19:29:45:b5:80:1c:42:41:83:00:
                    e2:a0:14:3b:f8:d5:40:08:35:e3:7a:76:00:37:68:
                    89:db
                Exponent: 65537 (0x10001)
        X509v3 extensions:
            X509v3 Basic Constraints: 
                CA:FALSE
            X509v3 Subject Key Identifier: 
                0B:3B:C6:55:AA:F3:A7:4E:9E:C2:E6:A3:57:F3:CF:43:A1:DE:74:88
            X509v3 Authority Key Identifier: 
                keyid:66:E5:56:CA:93:2B:02:0B:57:A4:D4:E2:ED:5F:CA:A4:EE:7D:83:F9

            X509v3 Subject Alternative Name: 
                DNS:badSAN.com
    Signature Algorithm: ecdsa-with-SHA1
         30:45:02:21:00:ab:bf:2f:fc:44:11:ba:0a:c1:76:00:19:19:
         a9:c3:38:47:fb:c6:15:97:d6:41:e2:e0:5a:c5:db:34:ca:b5:
         3a:02:20:1c:93:7d:44:26:67:4b:f5:ac:71:60:92:8a:18:c7:
         9a:3f:db:57:ed:1e:0d:06:94:2a:25:73:4f:0a:f7:3d:11
-----BEGIN CERTIFICATE-----
MIICSjCCAfGgAwIBAgICBI0wCQYHKoZIzj0EATAXMRUwEwYDVQQDEwxlc3RFeGFt
cGxlQ0EwHhcNMTUwODAzMjMxNzE5WhcNMjcwNzE2MjMxNzE5WjAWMRQwEgYDVQQD
DAtleGFtcGxlLmNvbTCCASIwDQYJKoZIhvcNAQEBBQADggEPADCCAQoCggEBALlH
OLplcem6nTQolqzEevpJUkDFmW2nCZbzZdZE28hRco1qyI41s3QyHd36Kfip6H/S
gNUJMBImFrayCZ4WqhWxeki5GkaFBj54atEetWRw+lMH2oiXqGSfERVPO0SJiRoR
oOB86S5YvdlFYMnttX4L1DWMKsPGiVgkYE0zYDmiWFfqnZXvbqIRjA3lx7zYcRGl
qnHR887locPLbMAzwFdlWkGx8NO+x8rdeMiH6RL7D8bxSt5FkwV9SkT522QgvwmP
EuceZVfJfG4ShKhM+DL2mQ96ZdoiwomeuV8qQCsqVN/4IKUZKUW1gBxCQYMA4qAU
O/jVQAg143p2ADdoidsCAwEAAaNkMGIwCQYDVR0TBAIwADAdBgNVHQ4EFgQUCzvG
Varzp06ewuajV/PPQ6HedIgwHwYDVR0jBBgwFoAUZuVWypMrAgtXpNTi7V/KpO59
g/kwFQYDVR0RBA4wDIIKYmFkU0FOLmNvbTAJBgcqhkjOPQQBA0gAMEUCIQCrvy/8
RBG6CsF2ABkZqcM4R/vGFZfWQeLgWsXbNMq1OgIgHJN9RCZnS/WscWCSihjHmj/b
V+0eDQaUKiVzTwr3PRE=
-----END CERTIFICATE-----

