Certificate:
    Data:
        Version: 3 (0x2)
        Serial Number: 1 (0x1)
    Signature Algorithm: ecdsa-with-SHA256
        Issuer: CN=estExampleTestMfg3CA
        Validity
            Not Before: Apr 22 19:06:37 2019 GMT
            Not After : Apr 22 19:06:37 2039 GMT
        Subject: CN=estExampleTestMfg3CA1-0
        Subject Public Key Info:
            Public Key Algorithm: id-ecPublicKey
                Public-Key: (256 bit)
                pub: 
                    04:48:2b:4c:13:c8:da:30:2a:4d:ff:00:22:4e:f8:
                    46:70:00:89:1b:bc:5b:85:8e:63:dd:29:50:11:4c:
                    f8:df:75:0c:d2:43:a1:60:b3:63:42:39:1d:3e:15:
                    b4:b1:04:98:78:16:65:4d:d0:67:3b:79:ea:03:04:
                    5c:58:c6:04:b2
                ASN1 OID: prime256v1
                NIST CURVE: P-256
        X509v3 extensions:
            X509v3 Basic Constraints: 
                CA:TRUE
            X509v3 Key Usage: 
                Certificate Sign
            X509v3 CRL Distribution Points: 

                Full Name:
                  URI:http://example.com/crl.pem

            X509v3 Subject Key Identifier: 
                CD:26:A1:30:FF:1D:00:6F:50:2D:FE:8D:5D:37:10:5E:13:C4:31:57
            X509v3 Authority Key Identifier: 
                keyid:1E:14:40:EA:A2:8B:41:4D:2F:F8:DF:92:42:9A:E3:CF:5F:83:61:75

    Signature Algorithm: ecdsa-with-SHA256
         30:44:02:20:46:d1:6a:23:bc:5e:5f:88:3e:c4:89:b8:65:52:
         4d:25:8c:9b:b4:70:c4:69:30:d1:15:e2:29:5f:78:66:37:f4:
         02:20:72:38:7f:a7:a9:97:e5:b0:30:91:25:b4:c3:d8:46:3f:
         c5:66:70:73:e7:64:ba:f3:6b:46:cd:a6:fd:c9:c7:35
-----BEGIN CERTIFICATE-----
MIIBuzCCAWKgAwIBAgIBATAKBggqhkjOPQQDAjAfMR0wGwYDVQQDDBRlc3RFeGFt
cGxlVGVzdE1mZzNDQTAeFw0xOTA0MjIxOTA2MzdaFw0zOTA0MjIxOTA2MzdaMCIx
IDAeBgNVBAMMF2VzdEV4YW1wbGVUZXN0TWZnM0NBMS0wMFkwEwYHKoZIzj0CAQYI
KoZIzj0DAQcDQgAESCtME8jaMCpN/wAiTvhGcACJG7xbhY5j3SlQEUz433UM0kOh
YLNjQjkdPhW0sQSYeBZlTdBnO3nqAwRcWMYEsqOBizCBiDAMBgNVHRMEBTADAQH/
MAsGA1UdDwQEAwICBDArBgNVHR8EJDAiMCCgHqAchhpodHRwOi8vZXhhbXBsZS5j
b20vY3JsLnBlbTAdBgNVHQ4EFgQUzSahMP8dAG9QLf6NXTcQXhPEMVcwHwYDVR0j
BBgwFoAUHhRA6qKLQU0v+N+SQprjz1+DYXUwCgYIKoZIzj0EAwIDRwAwRAIgRtFq
I7xeX4g+xIm4ZVJNJYybtHDEaTDRFeIpX3hmN/QCIHI4f6epl+WwMJEltMPYRj/F
ZnBz52S682tGzab9ycc1
-----END CERTIFICATE-----
