Certificate:
    Data:
        Version: 3 (0x2)
        Serial Number: 2 (0x2)
    Signature Algorithm: ecdsa-with-SHA256
        Issuer: CN=estExampleTestMfg3CA1-0
        Validity
            Not Before: Apr 22 19:06:37 2019 GMT
            Not After : Apr 22 19:06:37 2039 GMT
        Subject: CN=127.0.0.1, OU=IOOT(Internet Of Other Things)
        Subject Public Key Info:
            Public Key Algorithm: id-ecPublicKey
                Public-Key: (256 bit)
                pub: 
                    04:4a:c8:33:c2:c1:d6:b7:51:93:2b:bc:bd:0a:48:
                    d0:f0:ad:2b:15:a3:e4:3b:4d:e4:9f:1a:27:af:13:
                    c7:4f:6f:01:3c:a9:4a:61:3c:5d:78:8f:7f:e7:0c:
                    30:12:61:75:e3:0c:66:e6:83:1f:c0:62:2f:31:cf:
                    5f:62:40:26:3c
                ASN1 OID: prime256v1
                NIST CURVE: P-256
        X509v3 extensions:
            X509v3 Basic Constraints: 
                CA:FALSE
            X509v3 Key Usage: 
                Digital Signature, Non Repudiation, Key Encipherment
            X509v3 Subject Alternative Name: 
                DNS:localhost, DNS:ip6-localhost, IP Address:127.0.0.1, IP Address:0:0:0:0:0:0:0:1
            X509v3 CRL Distribution Points: 

                Full Name:
                  URI:http://example.com/crl.pem

    Signature Algorithm: ecdsa-with-SHA256
         30:44:02:20:37:54:4e:db:6e:ec:1b:a7:7e:f7:5a:50:4c:a4:
         63:a4:86:21:03:aa:f1:33:91:f3:dc:8c:54:53:64:95:bb:12:
         02:20:1e:ed:62:1f:f4:2d:65:6a:bf:e5:3e:87:a9:e0:dc:28:
         ad:3f:a1:a0:bf:36:ed:1a:8f:38:1e:1f:9e:fd:d4:8e
-----BEGIN CERTIFICATE-----
MIIB0zCCAXqgAwIBAgIBAjAKBggqhkjOPQQDAjAiMSAwHgYDVQQDDBdlc3RFeGFt
cGxlVGVzdE1mZzNDQTEtMDAeFw0xOTA0MjIxOTA2MzdaFw0zOTA0MjIxOTA2Mzda
MD0xEjAQBgNVBAMMCTEyNy4wLjAuMTEnMCUGA1UECwweSU9PVChJbnRlcm5ldCBP
ZiBPdGhlciBUaGluZ3MpMFkwEwYHKoZIzj0CAQYIKoZIzj0DAQcDQgAESsgzwsHW
t1GTK7y9CkjQ8K0rFaPkO03knxonrxPHT28BPKlKYTxdeI9/5wwwEmF14wxm5oMf
wGIvMc9fYkAmPKOBhTCBgjAJBgNVHRMEAjAAMAsGA1UdDwQEAwIF4DA7BgNVHREE
NDAygglsb2NhbGhvc3SCDWlwNi1sb2NhbGhvc3SHBH8AAAGHEAAAAAAAAAAAAAAA
AAAAAAEwKwYDVR0fBCQwIjAgoB6gHIYaaHR0cDovL2V4YW1wbGUuY29tL2NybC5w
ZW0wCgYIKoZIzj0EAwIDRwAwRAIgN1RO227sG6d+91pQTKRjpIYhA6rxM5Hz3IxU
U2SVuxICIB7tYh/0LWVqv+U+h6ng3CitP6GgvzbtGo84Hh+e/dSO
-----END CERTIFICATE-----
