Certificate:
    Data:
        Version: 3 (0x2)
        Serial Number: 3 (0x3)
    Signature Algorithm: ecdsa-with-SHA1
        Issuer: CN=estEXTERNALCA
        Validity
            Not Before: Jul  3 12:34:32 2014 GMT
            Not After : Jun 15 12:34:32 2026 GMT
        Subject: CN=implicit-cert-test
        Subject Public Key Info:
            Public Key Algorithm: id-ecPublicKey
                Public-Key: (256 bit)
                pub: 
                    04:fc:e9:72:79:49:21:fd:7a:f6:79:eb:71:11:a6:
                    db:bf:20:78:a2:b2:24:eb:d5:c1:71:74:b3:81:79:
                    9a:28:e6:3c:f8:cf:d3:51:85:12:9f:c1:d7:2e:14:
                    5e:d6:8a:4c:1b:03:ba:09:91:bc:c7:99:07:af:67:
                    c4:7f:0c:f7:5d
                ASN1 OID: prime256v1
        X509v3 extensions:
            X509v3 Basic Constraints: 
                CA:FALSE
            X509v3 Subject Key Identifier: 
                84:DA:08:F7:CE:3D:6D:42:06:FE:64:D0:20:2A:7D:AE:70:53:9E:F6
            X509v3 Authority Key Identifier: 
                keyid:CF:B1:92:EB:0E:B3:8A:DC:0E:E9:55:50:4E:55:AD:A6:45:5C:58:B1

    Signature Algorithm: ecdsa-with-SHA1
         30:45:02:21:00:91:df:32:77:3e:4b:34:a3:36:34:c3:01:a0:
         ee:4f:cc:70:82:e3:6a:23:27:a8:5a:80:96:e7:54:f4:33:d5:
         aa:02:20:44:b4:cf:46:3f:fa:18:a8:9e:58:4f:b3:d6:55:97:
         a1:a5:9f:a0:fa:c9:7e:1c:6e:3f:cb:fc:f7:29:79:ef:93
-----BEGIN CERTIFICATE-----
MIIBbzCCARagAwIBAgIBAzAJBgcqhkjOPQQBMBgxFjAUBgNVBAMTDWVzdEVYVEVS
TkFMQ0EwHhcNMTQwNzAzMTIzNDMyWhcNMjYwNjE1MTIzNDMyWjAdMRswGQYDVQQD
ExJpbXBsaWNpdC1jZXJ0LXRlc3QwWTATBgcqhkjOPQIBBggqhkjOPQMBBwNCAAT8
6XJ5SSH9evZ563ERptu/IHiisiTr1cFxdLOBeZoo5jz4z9NRhRKfwdcuFF7Wikwb
A7oJkbzHmQevZ8R/DPddo00wSzAJBgNVHRMEAjAAMB0GA1UdDgQWBBSE2gj3zj1t
Qgb+ZNAgKn2ucFOe9jAfBgNVHSMEGDAWgBTPsZLrDrOK3A7pVVBOVa2mRVxYsTAJ
BgcqhkjOPQQBA0gAMEUCIQCR3zJ3Pks0ozY0wwGg7k/McILjaiMnqFqAludU9DPV
qgIgRLTPRj/6GKieWE+z1lWXoaWfoPrJfhxuP8v89yl575M=
-----END CERTIFICATE-----
