Certificate:
    Data:
        Version: 3 (0x2)
        Serial Number: 2 (0x2)
        Signature Algorithm: ecdsa-with-SHA256
        Issuer: CN=estExampleTestMfg1CA1-0
        Validity
            Not Before: Jan 21 17:04:29 2020 GMT
            Not After : Jan 21 17:04:29 2040 GMT
        Subject: CN=127.0.0.1
        Subject Public Key Info:
            Public Key Algorithm: id-ecPublicKey
                Public-Key: (256 bit)
                pub:
                    04:93:40:ae:0a:c1:f9:7e:e0:8e:82:1e:07:17:c4:
                    2b:3f:97:e6:c7:9a:c7:72:41:de:d0:ef:c5:32:5e:
                    1b:2e:00:30:9b:bc:ff:00:0e:18:f6:7f:f3:1a:88:
                    c5:60:3a:09:31:00:84:2a:56:54:67:af:1b:98:c5:
                    1b:3d:fe:28:be
                ASN1 OID: prime256v1
                NIST CURVE: P-256
        X509v3 extensions:
            X509v3 Basic Constraints: 
                CA:FALSE
            X509v3 Key Usage: 
                Digital Signature, Non Repudiation, Key Encipherment
            X509v3 Subject Alternative Name: 
                DNS:localhost, DNS:ip6-localhost, IP Address:127.0.0.1, IP Address:0:0:0:0:0:0:0:1
            X509v3 CRL Distribution Points: 

                Full Name:
                  URI:http://example.com/crl.pem

    Signature Algorithm: ecdsa-with-SHA256
         30:44:02:20:46:27:64:25:da:f8:b4:6d:2c:05:6a:3c:c5:8c:
         15:61:79:ec:c6:c1:16:b3:6e:3b:fc:46:ea:61:a8:2e:b8:62:
         02:20:79:6b:10:68:0d:4e:52:d2:6e:23:18:94:e5:c4:f1:37:
         45:45:45:f5:7a:68:c7:90:aa:0c:78:dc:06:50:82:7e
-----BEGIN CERTIFICATE-----
MIIBqjCCAVGgAwIBAgIBAjAKBggqhkjOPQQDAjAiMSAwHgYDVQQDDBdlc3RFeGFt
cGxlVGVzdE1mZzFDQTEtMDAeFw0yMDAxMjExNzA0MjlaFw00MDAxMjExNzA0Mjla
MBQxEjAQBgNVBAMMCTEyNy4wLjAuMTBZMBMGByqGSM49AgEGCCqGSM49AwEHA0IA
BJNArgrB+X7gjoIeBxfEKz+X5seax3JB3tDvxTJeGy4AMJu8/wAOGPZ/8xqIxWA6
CTEAhCpWVGevG5jFGz3+KL6jgYUwgYIwCQYDVR0TBAIwADALBgNVHQ8EBAMCBeAw
OwYDVR0RBDQwMoIJbG9jYWxob3N0gg1pcDYtbG9jYWxob3N0hwR/AAABhxAAAAAA
AAAAAAAAAAAAAAABMCsGA1UdHwQkMCIwIKAeoByGGmh0dHA6Ly9leGFtcGxlLmNv
bS9jcmwucGVtMAoGCCqGSM49BAMCA0cAMEQCIEYnZCXa+LRtLAVqPMWMFWF57MbB
FrNuO/xG6mGoLrhiAiB5axBoDU5S0m4jGJTlxPE3RUVF9Xpox5CqDHjcBlCCfg==
-----END CERTIFICATE-----
-----BEGIN PRIVATE KEY-----
MIGHAgEAMBMGByqGSM49AgEGCCqGSM49AwEHBG0wawIBAQQgEpsculEC7vzrZJHp
BC6091qRhv884lgqjyPnpt5EFDmhRANCAASTQK4Kwfl+4I6CHgcXxCs/l+bHmsdy
Qd7Q78UyXhsuADCbvP8ADhj2f/MaiMVgOgkxAIQqVlRnrxuYxRs9/ii+
-----END PRIVATE KEY-----
