Certificate:
    Data:
        Version: 3 (0x2)
        Serial Number: 745 (0x2e9)
    Signature Algorithm: ecdsa-with-SHA1
        Issuer: CN=estExampleCA
        Validity
            Not Before: Oct  3 15:24:01 2013 GMT
            Not After : Oct  4 15:24:01 2013 GMT
        Subject: CN=localhost
        Subject Public Key Info:
            Public Key Algorithm: rsaEncryption
                Public-Key: (1024 bit)
                Modulus:
                    00:e3:ca:38:65:fb:9c:46:a6:22:b1:be:17:bc:50:
                    03:fe:c8:72:73:23:c6:61:01:b6:16:28:c1:6f:f8:
                    0e:9c:c5:c2:17:37:f6:bb:74:27:46:14:d1:a0:11:
                    da:75:3e:8b:65:68:4e:fe:7b:0a:2b:09:28:05:7f:
                    a8:0f:92:02:bb:3c:6e:db:7a:f5:76:a1:ee:55:e6:
                    3c:56:71:4e:a0:e8:1c:be:57:0e:99:f5:91:50:85:
                    22:ee:b6:35:06:b5:52:85:8b:c3:7e:fb:03:fa:3f:
                    de:2d:d4:19:76:be:22:4a:6c:ef:92:02:59:20:e4:
                    b6:fd:e8:61:be:70:96:18:25
                Exponent: 65537 (0x10001)
        X509v3 extensions:
            X509v3 Basic Constraints: 
                CA:FALSE
            X509v3 Key Usage: 
                Digital Signature, Non Repudiation, Key Encipherment
            X509v3 Subject Alternative Name: 
                DNS:localhost.cisco.com, DNS:jimbob.cisco.com, DNS:bobcat.cisco.com, IP Address:127.0.0.1, IP Address:172.18.52.2
    Signature Algorithm: ecdsa-with-SHA1
         30:45:02:20:6d:92:ec:08:01:24:14:59:da:9e:c0:2d:55:25:
         39:2d:fb:02:8a:51:b9:19:e4:c0:6f:e0:c0:da:29:df:f7:64:
         02:21:00:f6:76:b4:67:7e:78:c8:52:29:dd:47:82:23:cb:52:
         ca:74:30:27:5a:00:18:eb:1c:80:fe:8b:17:96:e2:9b:c4
-----BEGIN CERTIFICATE-----
MIIByjCCAXGgAwIBAgICAukwCQYHKoZIzj0EATAXMRUwEwYDVQQDEwxlc3RFeGFt
cGxlQ0EwHhcNMTMxMDAzMTUyNDAxWhcNMTMxMDA0MTUyNDAxWjAUMRIwEAYDVQQD
DAlsb2NhbGhvc3QwgZ8wDQYJKoZIhvcNAQEBBQADgY0AMIGJAoGBAOPKOGX7nEam
IrG+F7xQA/7IcnMjxmEBthYowW/4DpzFwhc39rt0J0YU0aAR2nU+i2VoTv57CisJ
KAV/qA+SArs8btt69Xah7lXmPFZxTqDoHL5XDpn1kVCFIu62NQa1UoWLw377A/o/
3i3UGXa+Ikps75ICWSDktv3oYb5wlhglAgMBAAGjajBoMAkGA1UdEwQCMAAwCwYD
VR0PBAQDAgXgME4GA1UdEQRHMEWCE2xvY2FsaG9zdC5jaXNjby5jb22CEGppbWJv
Yi5jaXNjby5jb22CEGJvYmNhdC5jaXNjby5jb22HBH8AAAGHBKwSNAIwCQYHKoZI
zj0EAQNIADBFAiBtkuwIASQUWdqewC1VJTkt+wKKUbkZ5MBv4MDaKd/3ZAIhAPZ2
tGd+eMhSKd1HgiPLUsp0MCdaABjrHID+ixeW4pvE
-----END CERTIFICATE-----
