Certificate:
    Data:
        Version: 3 (0x2)
        Serial Number: 749 (0x2ed)
    Signature Algorithm: ecdsa-with-SHA1
        Issuer: CN=estExampleCA
        Validity
            Not Before: Nov  4 16:32:02 2013 GMT
            Not After : Nov  5 16:32:02 2013 GMT
        Subject: CN=127.0.0.1
        Subject Public Key Info:
            Public Key Algorithm: rsaEncryption
                Public-Key: (2048 bit)
                Modulus:
                    00:e5:99:a3:cf:e8:03:99:ca:24:b7:78:bb:13:f5:
                    0b:2e:da:cb:fc:21:75:18:b6:43:f1:9d:30:e0:b7:
                    15:5a:f0:bd:76:f4:e9:d7:17:bd:b3:2f:c2:33:11:
                    16:e0:e9:ab:77:91:39:29:81:2f:f0:52:fc:ec:fc:
                    2a:7e:b5:79:20:0d:d1:46:ee:5c:73:7d:2f:32:82:
                    a2:87:d3:b0:9b:8b:95:05:8f:80:78:d3:ca:2f:b2:
                    ed:80:7f:18:ba:57:49:dd:ef:52:98:f3:f6:b4:f5:
                    0b:59:54:69:de:15:91:3d:46:35:bd:75:ea:ec:df:
                    57:ca:7c:64:11:17:d3:46:76:7d:4f:94:2b:3c:16:
                    f2:b6:c4:19:a4:18:42:19:4e:a1:c4:9d:ec:9f:6f:
                    76:fc:4f:a7:c5:14:0d:38:f7:49:a9:c1:dd:14:32:
                    f2:cb:aa:8d:ff:da:7e:35:a2:d9:c3:b6:34:b8:07:
                    83:10:0a:08:61:85:12:2f:1d:33:07:f3:af:9b:97:
                    a3:d1:f0:ac:38:b2:99:ac:6b:68:49:01:73:6a:af:
                    8d:53:43:b9:1c:16:a8:6c:03:37:ed:9b:a4:d0:08:
                    60:6f:d8:de:95:fb:cb:1d:7b:51:c0:4d:6a:28:d9:
                    70:ab:be:84:e6:d2:e6:ee:d4:79:e7:70:2e:02:18:
                    24:3b
                Exponent: 65537 (0x10001)
        X509v3 extensions:
            X509v3 Basic Constraints: 
                CA:FALSE
            X509v3 Subject Key Identifier: 
                B8:94:2A:12:28:5C:2A:BB:F5:45:13:B0:F2:D1:24:73:51:DE:08:D6
            X509v3 Authority Key Identifier: 
                keyid:66:E5:56:CA:93:2B:02:0B:57:A4:D4:E2:ED:5F:CA:A4:EE:7D:83:F9

    Signature Algorithm: ecdsa-with-SHA1
         30:46:02:21:00:ce:b9:05:16:f8:40:e6:b4:3d:b3:76:b7:dc:
         ea:ec:cd:5d:d8:bf:7c:b3:a2:32:92:de:70:9e:19:f9:f9:a2:
         e1:02:21:00:f6:3a:78:fd:cf:4b:83:7a:0a:33:c2:66:24:6d:
         f8:fd:d2:74:37:24:6f:09:02:0f:5c:c1:3c:b4:36:ab:d8:9e
-----BEGIN CERTIFICATE-----
MIICMjCCAdigAwIBAgICAu0wCQYHKoZIzj0EATAXMRUwEwYDVQQDEwxlc3RFeGFt
cGxlQ0EwHhcNMTMxMTA0MTYzMjAyWhcNMTMxMTA1MTYzMjAyWjAUMRIwEAYDVQQD
EwkxMjcuMC4wLjEwggEiMA0GCSqGSIb3DQEBAQUAA4IBDwAwggEKAoIBAQDlmaPP
6AOZyiS3eLsT9Qsu2sv8IXUYtkPxnTDgtxVa8L129OnXF72zL8IzERbg6at3kTkp
gS/wUvzs/Cp+tXkgDdFG7lxzfS8ygqKH07Cbi5UFj4B408ovsu2Afxi6V0nd71KY
8/a09QtZVGneFZE9RjW9ders31fKfGQRF9NGdn1PlCs8FvK2xBmkGEIZTqHEneyf
b3b8T6fFFA0490mpwd0UMvLLqo3/2n41otnDtjS4B4MQCghhhRIvHTMH86+bl6PR
8Kw4spmsa2hJAXNqr41TQ7kcFqhsAzftm6TQCGBv2N6V+8sde1HATWoo2XCrvoTm
0ubu1HnncC4CGCQ7AgMBAAGjTTBLMAkGA1UdEwQCMAAwHQYDVR0OBBYEFLiUKhIo
XCq79UUTsPLRJHNR3gjWMB8GA1UdIwQYMBaAFGblVsqTKwILV6TU4u1fyqTufYP5
MAkGByqGSM49BAEDSQAwRgIhAM65BRb4QOa0PbN2t9zq7M1d2L98s6Iykt5wnhn5
+aLhAiEA9jp4/c9Lg3oKM8JmJG34/dJ0NyRvCQIPXME8tDar2J4=
-----END CERTIFICATE-----
