Certificate:
    Data:
        Version: 3 (0x2)
        Serial Number: 2 (0x2)
    Signature Algorithm: ecdsa-with-SHA1
        Issuer: CN=estExampleCA
        Validity
            Not Before: Jul 28 14:45:05 2015 GMT
            Not After : Jul 27 14:45:05 2016 GMT
        Subject: CN=BadTrustAnchor
        Subject Public Key Info:
            Public Key Algorithm: rsaEncryption
                Public-Key: (2048 bit)
                Modulus:
                    00:c5:8f:31:66:e0:9c:f7:f4:96:41:bf:a4:6a:7a:
                    be:74:b1:ca:70:5d:ce:fb:3b:8f:af:5b:8a:00:38:
                    cc:48:b7:09:a4:2d:77:9a:4e:5f:70:9a:be:cb:67:
                    89:e2:ca:04:65:2d:b3:4f:33:fc:8d:d4:b0:d1:aa:
                    b0:48:ee:75:0f:1f:af:86:a0:ef:e2:64:c5:b2:5a:
                    40:24:e3:5f:fb:d7:7d:de:d9:02:e6:c6:44:07:c5:
                    c2:18:aa:0b:3f:c4:81:65:53:d5:73:59:8f:16:f8:
                    74:fb:d5:0b:a0:b1:cd:d5:31:db:d4:ea:74:9b:c7:
                    e8:07:5b:47:c1:a5:64:ce:05:42:1a:87:47:a7:b5:
                    64:d8:bb:e1:97:3a:ae:d6:0c:9a:95:7c:2d:d5:47:
                    73:24:6e:bd:1a:1b:de:2d:75:65:f6:d4:fe:04:fb:
                    eb:b7:b7:12:a5:43:27:02:c1:bd:27:0e:5d:98:10:
                    08:98:b5:37:3e:39:da:fb:27:c5:1f:a0:c6:5f:f7:
                    41:fc:38:ab:aa:85:ae:51:dc:49:46:92:0e:bc:23:
                    c9:9d:35:5b:57:3c:fd:62:b7:44:f4:ab:ed:2e:08:
                    fe:94:4b:07:9f:ab:61:0c:77:fa:5e:80:96:68:44:
                    d4:59:5f:5e:7e:b5:52:d6:4d:9a:51:1c:6e:5c:c8:
                    21:b3
                Exponent: 65537 (0x10001)
        X509v3 extensions:
            X509v3 Basic Constraints: 
                CA:FALSE
            X509v3 Key Usage: 
                Digital Signature
            X509v3 CRL Distribution Points: 

                Full Name:
                  URI:http://example.com/crl.pem

            X509v3 Subject Key Identifier: 
                6C:A3:B1:CD:7C:0A:ED:90:49:D6:8C:58:BA:45:5E:C5:3B:C3:5E:5C
            X509v3 Authority Key Identifier: 
                keyid:CA:03:DE:4D:7B:B7:8D:32:54:7E:7E:22:1E:45:97:53:94:83:24:A9

    Signature Algorithm: ecdsa-with-SHA1
         30:46:02:21:00:c6:49:5a:d8:e1:5d:5a:af:c3:4f:30:5e:7b:
         79:dc:57:9b:42:11:79:3c:cd:ef:52:75:61:bb:10:84:3e:97:
         8e:02:21:00:f1:e3:b2:75:3e:89:32:fd:8a:b2:58:f7:a1:51:
         fd:33:d9:7a:b7:0b:73:f2:76:c7:c3:71:4c:a1:ee:7f:57:21
-----BEGIN CERTIFICATE-----
MIICcjCCAhigAwIBAgIBAjAJBgcqhkjOPQQBMBcxFTATBgNVBAMTDGVzdEV4YW1w
bGVDQTAeFw0xNTA3MjgxNDQ1MDVaFw0xNjA3MjcxNDQ1MDVaMBkxFzAVBgNVBAMM
DkJhZFRydXN0QW5jaG9yMIIBIjANBgkqhkiG9w0BAQEFAAOCAQ8AMIIBCgKCAQEA
xY8xZuCc9/SWQb+kanq+dLHKcF3O+zuPr1uKADjMSLcJpC13mk5fcJq+y2eJ4soE
ZS2zTzP8jdSw0aqwSO51Dx+vhqDv4mTFslpAJONf+9d93tkC5sZEB8XCGKoLP8SB
ZVPVc1mPFvh0+9ULoLHN1THb1Op0m8foB1tHwaVkzgVCGodHp7Vk2Lvhlzqu1gya
lXwt1UdzJG69GhveLXVl9tT+BPvrt7cSpUMnAsG9Jw5dmBAImLU3Pjna+yfFH6DG
X/dB/DirqoWuUdxJRpIOvCPJnTVbVzz9YrdE9KvtLgj+lEsHn6thDHf6XoCWaETU
WV9efrVS1k2aURxuXMghswIDAQABo4GIMIGFMAkGA1UdEwQCMAAwCwYDVR0PBAQD
AgeAMCsGA1UdHwQkMCIwIKAeoByGGmh0dHA6Ly9leGFtcGxlLmNvbS9jcmwucGVt
MB0GA1UdDgQWBBRso7HNfArtkEnWjFi6RV7FO8NeXDAfBgNVHSMEGDAWgBTKA95N
e7eNMlR+fiIeRZdTlIMkqTAJBgcqhkjOPQQBA0kAMEYCIQDGSVrY4V1ar8NPMF57
edxXm0IReTzN71J1YbsQhD6XjgIhAPHjsnU+iTL9irJY96FR/TPZercLc/J2x8Nx
TKHuf1ch
-----END CERTIFICATE-----

