Certificate:
    Data:
        Version: 3 (0x2)
        Serial Number: 751 (0x2ef)
    Signature Algorithm: ecdsa-with-SHA256
        Issuer: CN=estExampleCA
        Validity
            Not Before: May  9 14:59:20 2014 GMT
            Not After : Oct 29 14:59:20 2020 GMT
        Subject: CN=127.0.0.1
        Subject Public Key Info:
            Public Key Algorithm: rsaEncryption
                Public-Key: (2048 bit)
                Modulus:
                    00:c7:ee:e0:e5:7e:83:65:e2:84:cb:c8:82:da:7d:
                    42:aa:d6:fe:2f:c4:df:87:0a:be:06:bc:2c:fc:a8:
                    bd:f7:bb:27:b0:1a:b3:32:5d:4b:c6:8e:7a:92:c3:
                    2d:ff:1d:de:af:8c:b7:b0:9f:a3:57:f1:5c:f9:8d:
                    03:13:f5:0c:5e:ec:18:ff:6f:3f:8f:2b:00:ec:58:
                    d9:97:fa:6b:21:24:3a:78:55:8a:f7:0a:c8:d1:33:
                    bd:74:b0:21:53:d7:cc:2c:75:9e:ce:49:0e:c5:e5:
                    1b:90:45:b1:ed:c9:bf:09:09:8a:e2:4f:8a:d9:9f:
                    2c:dd:1f:23:50:1f:a6:c5:55:e9:26:aa:a5:84:1c:
                    71:b0:7c:27:12:e6:88:60:65:af:80:b8:1c:0c:ff:
                    05:d8:eb:ad:e9:76:95:6f:b7:c6:90:d2:8f:29:1b:
                    7e:ee:cd:39:fd:30:55:58:b5:c2:23:09:8b:4a:6c:
                    4b:09:2e:73:90:7d:72:96:c9:41:b0:e6:3d:76:96:
                    b7:f3:db:fa:08:11:26:c6:e8:92:66:b0:8e:fe:c6:
                    f3:e6:36:a1:48:5b:d3:6e:68:7e:77:40:fd:22:ad:
                    09:10:d9:9a:02:46:ab:8a:8c:2d:b1:0a:4e:cb:29:
                    66:f9:0b:b6:7c:af:8c:80:b1:bc:96:d8:5e:2c:2c:
                    ac:e9
                Exponent: 65537 (0x10001)
        X509v3 extensions:
            X509v3 Basic Constraints: 
                CA:FALSE
            X509v3 Subject Key Identifier: 
                34:EC:C6:90:86:01:6E:85:14:C9:96:9D:8E:1B:09:F6:49:66:ED:76
            X509v3 Authority Key Identifier: 
                keyid:66:E5:56:CA:93:2B:02:0B:57:A4:D4:E2:ED:5F:CA:A4:EE:7D:83:F9

    Signature Algorithm: ecdsa-with-SHA256
         30:45:02:20:47:8d:e8:b8:2c:1d:2e:e2:48:f5:01:97:de:ce:
         ca:a5:1f:57:dd:8b:21:99:c8:6d:b3:a1:f6:3e:36:42:69:3b:
         02:21:00:c0:94:5a:91:e8:e4:5c:57:8b:47:c1:b5:bf:f4:ee:
         32:89:19:c3:11:27:6e:f9:2c:6d:bb:d6:98:47:48:2b:6a
-----BEGIN CERTIFICATE-----
MIICMzCCAdmgAwIBAgICAu8wCgYIKoZIzj0EAwIwFzEVMBMGA1UEAxMMZXN0RXhh
bXBsZUNBMB4XDTE0MDUwOTE0NTkyMFoXDTIwMTAyOTE0NTkyMFowFDESMBAGA1UE
AxMJMTI3LjAuMC4xMIIBIjANBgkqhkiG9w0BAQEFAAOCAQ8AMIIBCgKCAQEAx+7g
5X6DZeKEy8iC2n1Cqtb+L8Tfhwq+Brws/Ki997snsBqzMl1Lxo56ksMt/x3er4y3
sJ+jV/Fc+Y0DE/UMXuwY/28/jysA7FjZl/prISQ6eFWK9wrI0TO9dLAhU9fMLHWe
zkkOxeUbkEWx7cm/CQmK4k+K2Z8s3R8jUB+mxVXpJqqlhBxxsHwnEuaIYGWvgLgc
DP8F2Out6XaVb7fGkNKPKRt+7s05/TBVWLXCIwmLSmxLCS5zkH1ylslBsOY9dpa3
89v6CBEmxuiSZrCO/sbz5jahSFvTbmh+d0D9Iq0JENmaAkariowtsQpOyylm+Qu2
fK+MgLG8ltheLCys6QIDAQABo00wSzAJBgNVHRMEAjAAMB0GA1UdDgQWBBQ07MaQ
hgFuhRTJlp2OGwn2SWbtdjAfBgNVHSMEGDAWgBRm5VbKkysCC1ek1OLtX8qk7n2D
+TAKBggqhkjOPQQDAgNIADBFAiBHjei4LB0u4kj1AZfezsqlH1fdiyGZyG2zofY+
NkJpOwIhAMCUWpHo5FxXi0fBtb/07jKJGcMRJ275LG271phHSCtq
-----END CERTIFICATE-----
