Certificate:
    Data:
        Version: 3 (0x2)
        Serial Number: 753 (0x2f1)
    Signature Algorithm: ecdsa-with-SHA256
        Issuer: CN=estExampleCA
        Validity
            Not Before: May  9 15:09:54 2014 GMT
            Not After : Oct 29 15:09:54 2020 GMT
        Subject: CN=garblegoop.com
        Subject Public Key Info:
            Public Key Algorithm: rsaEncryption
                Public-Key: (2048 bit)
                Modulus:
                    00:b6:5b:bc:ef:57:61:fe:07:b1:1c:15:34:63:12:
                    72:01:8f:6b:13:3a:13:d0:34:53:68:99:3b:f2:4f:
                    c1:0e:ac:ff:9d:69:a5:7c:ee:37:17:4e:b0:4e:e4:
                    1c:ac:26:84:30:f3:f7:b8:d1:9b:d6:77:4e:d4:44:
                    66:86:e9:7b:56:bf:00:e3:13:d4:00:ea:96:42:96:
                    d3:d3:1f:6e:ae:17:34:9e:e8:3b:5b:73:6a:a2:ff:
                    1c:4a:ad:b3:75:1a:fb:98:f8:96:20:8a:de:2a:80:
                    41:f8:c6:e9:2f:48:eb:33:f5:79:6d:70:c7:72:7c:
                    11:2e:b1:92:96:a1:cd:36:cf:ae:a9:16:f0:52:f3:
                    7c:1c:11:2c:a3:07:94:99:91:55:00:7c:a0:19:f5:
                    18:0e:f8:f0:51:b8:2d:ce:d4:17:ee:80:51:3f:a3:
                    e6:06:6e:5e:98:da:46:ef:a4:2b:5e:55:d9:95:e0:
                    0c:3f:09:fe:d5:56:9d:0f:0b:14:d8:53:3b:07:5f:
                    01:0b:6f:0d:be:ff:ab:d3:50:24:ce:5a:cf:eb:77:
                    80:63:32:bc:81:fa:99:c1:a9:8d:51:47:39:ac:1a:
                    41:31:02:d4:c4:e5:f5:7f:cf:ea:13:5b:c3:83:1f:
                    4f:39:c6:2e:b3:89:ea:7d:a8:a5:ad:72:79:5c:66:
                    49:89
                Exponent: 65537 (0x10001)
        X509v3 extensions:
            X509v3 Basic Constraints: 
                CA:FALSE
            X509v3 Subject Key Identifier: 
                F3:FC:3B:D5:5B:EA:D3:49:45:4C:8F:42:E7:C3:13:29:17:C8:D8:E7
            X509v3 Authority Key Identifier: 
                keyid:66:E5:56:CA:93:2B:02:0B:57:A4:D4:E2:ED:5F:CA:A4:EE:7D:83:F9

    Signature Algorithm: ecdsa-with-SHA256
         30:45:02:20:2a:e8:89:e1:e5:bd:0e:b6:b4:00:23:a6:98:f1:
         04:8e:98:48:3f:ea:37:4b:55:5c:8c:46:54:d2:3f:b5:6c:5a:
         02:21:00:85:a2:21:f4:31:3a:27:d3:a2:35:da:52:35:4b:01:
         9d:43:57:19:97:37:a4:58:30:29:34:fe:80:e5:47:cd:0a
-----BEGIN CERTIFICATE-----
MIICODCCAd6gAwIBAgICAvEwCgYIKoZIzj0EAwIwFzEVMBMGA1UEAxMMZXN0RXhh
bXBsZUNBMB4XDTE0MDUwOTE1MDk1NFoXDTIwMTAyOTE1MDk1NFowGTEXMBUGA1UE
AxMOZ2FyYmxlZ29vcC5jb20wggEiMA0GCSqGSIb3DQEBAQUAA4IBDwAwggEKAoIB
AQC2W7zvV2H+B7EcFTRjEnIBj2sTOhPQNFNomTvyT8EOrP+daaV87jcXTrBO5Bys
JoQw8/e40ZvWd07URGaG6XtWvwDjE9QA6pZCltPTH26uFzSe6Dtbc2qi/xxKrbN1
GvuY+JYgit4qgEH4xukvSOsz9XltcMdyfBEusZKWoc02z66pFvBS83wcESyjB5SZ
kVUAfKAZ9RgO+PBRuC3O1BfugFE/o+YGbl6Y2kbvpCteVdmV4Aw/Cf7VVp0PCxTY
UzsHXwELbw2+/6vTUCTOWs/rd4BjMryB+pnBqY1RRzmsGkExAtTE5fV/z+oTW8OD
H085xi6ziep9qKWtcnlcZkmJAgMBAAGjTTBLMAkGA1UdEwQCMAAwHQYDVR0OBBYE
FPP8O9Vb6tNJRUyPQufDEykXyNjnMB8GA1UdIwQYMBaAFGblVsqTKwILV6TU4u1f
yqTufYP5MAoGCCqGSM49BAMCA0gAMEUCICroieHlvQ62tAAjppjxBI6YSD/qN0tV
XIxGVNI/tWxaAiEAhaIh9DE6J9OiNdpSNUsBnUNXGZc3pFgwKTT+gOVHzQo=
-----END CERTIFICATE-----
