Certificate:
    Data:
        Version: 3 (0x2)
        Serial Number: 779 (0x30b)
    Signature Algorithm: ecdsa-with-SHA1
        Issuer: CN=estExampleCA
        Validity
            Not Before: Jul  3 12:37:31 2014 GMT
            Not After : Jun 15 12:37:31 2026 GMT
        Subject: CN=explicit-cert-test
        Subject Public Key Info:
            Public Key Algorithm: id-ecPublicKey
                Public-Key: (256 bit)
                pub: 
                    04:77:21:14:83:81:f3:e8:66:41:18:b3:61:19:3d:
                    a2:39:0a:1b:b3:aa:4c:04:6f:40:23:2d:5c:01:6f:
                    42:d0:53:d8:aa:8f:7d:c8:7f:5b:66:48:c7:bb:80:
                    c8:d1:99:51:32:f3:66:3e:42:89:2b:d2:9f:80:72:
                    95:5f:17:8f:59
                ASN1 OID: prime256v1
        X509v3 extensions:
            X509v3 Basic Constraints: 
                CA:FALSE
            X509v3 Subject Key Identifier: 
                FB:DE:4D:2E:0E:70:4E:69:18:40:DE:5A:1F:BD:71:2F:C5:B4:49:B2
            X509v3 Authority Key Identifier: 
                keyid:66:E5:56:CA:93:2B:02:0B:57:A4:D4:E2:ED:5F:CA:A4:EE:7D:83:F9

    Signature Algorithm: ecdsa-with-SHA1
         30:44:02:20:22:85:bd:75:bf:af:4f:99:89:81:61:7b:6a:9a:
         19:f9:9a:b0:7c:bc:1c:14:8f:9b:17:62:14:a5:87:5a:f9:39:
         02:20:4b:7c:3a:e2:ff:19:40:57:02:ea:d6:1b:10:79:16:eb:
         95:dd:53:dc:65:c0:5b:20:89:84:ff:c5:cf:ca:36:1a
-----BEGIN CERTIFICATE-----
MIIBbjCCARagAwIBAgICAwswCQYHKoZIzj0EATAXMRUwEwYDVQQDEwxlc3RFeGFt
cGxlQ0EwHhcNMTQwNzAzMTIzNzMxWhcNMjYwNjE1MTIzNzMxWjAdMRswGQYDVQQD
ExJleHBsaWNpdC1jZXJ0LXRlc3QwWTATBgcqhkjOPQIBBggqhkjOPQMBBwNCAAR3
IRSDgfPoZkEYs2EZPaI5ChuzqkwEb0AjLVwBb0LQU9iqj33If1tmSMe7gMjRmVEy
82Y+Qokr0p+AcpVfF49Zo00wSzAJBgNVHRMEAjAAMB0GA1UdDgQWBBT73k0uDnBO
aRhA3lofvXEvxbRJsjAfBgNVHSMEGDAWgBRm5VbKkysCC1ek1OLtX8qk7n2D+TAJ
BgcqhkjOPQQBA0cAMEQCICKFvXW/r0+ZiYFhe2qaGfmasHy8HBSPmxdiFKWHWvk5
AiBLfDri/xlAVwLq1hsQeRbrld1T3GXAWyCJhP/Fz8o2Gg==
-----END CERTIFICATE-----
