Certificate:
    Data:
        Version: 3 (0x2)
        Serial Number: 1 (0x1)
    Signature Algorithm: ecdsa-with-SHA256
        Issuer: CN=estExampleTestMfg0CA
        Validity
            Not Before: Apr 22 19:06:37 2019 GMT
            Not After : Apr 22 19:06:37 2039 GMT
        Subject: CN=estExampleTestMfg0CA1-0
        Subject Public Key Info:
            Public Key Algorithm: id-ecPublicKey
                Public-Key: (256 bit)
                pub: 
                    04:0f:3f:28:d4:dd:fe:bb:7a:92:57:c2:89:d9:96:
                    0e:4d:ab:26:c1:8f:8f:25:a8:69:88:34:a1:4a:70:
                    b8:4f:92:eb:ec:ce:af:72:46:fc:09:2e:57:cd:48:
                    9c:54:62:81:e5:40:b4:88:2d:42:56:ff:69:87:73:
                    4a:a6:20:65:b7
                ASN1 OID: prime256v1
                NIST CURVE: P-256
        X509v3 extensions:
            X509v3 Basic Constraints: 
                CA:TRUE
            X509v3 Key Usage: 
                Certificate Sign
            X509v3 CRL Distribution Points: 

                Full Name:
                  URI:http://example.com/crl.pem

            X509v3 Subject Key Identifier: 
                4C:37:C3:2B:44:9F:56:02:ED:84:9E:73:C6:A9:7B:91:A1:0E:8F:CE
            X509v3 Authority Key Identifier: 
                keyid:93:97:C0:0D:55:68:97:D4:0B:2C:84:4A:CC:05:81:89:41:B0:5A:23

    Signature Algorithm: ecdsa-with-SHA256
         30:44:02:20:61:9b:db:4d:c0:65:8e:d7:8b:0c:e7:56:5a:93:
         aa:b9:87:2c:f4:9f:30:7b:22:41:75:63:e1:09:bc:ac:1f:3e:
         02:20:5f:29:16:87:6d:f7:7a:49:66:14:e3:d0:72:6b:fd:f1:
         ba:90:b0:95:9f:67:b9:1f:34:75:3e:73:79:f0:2d:56
-----BEGIN CERTIFICATE-----
MIIBuzCCAWKgAwIBAgIBATAKBggqhkjOPQQDAjAfMR0wGwYDVQQDDBRlc3RFeGFt
cGxlVGVzdE1mZzBDQTAeFw0xOTA0MjIxOTA2MzdaFw0zOTA0MjIxOTA2MzdaMCIx
IDAeBgNVBAMMF2VzdEV4YW1wbGVUZXN0TWZnMENBMS0wMFkwEwYHKoZIzj0CAQYI
KoZIzj0DAQcDQgAEDz8o1N3+u3qSV8KJ2ZYOTasmwY+PJahpiDShSnC4T5Lr7M6v
ckb8CS5XzUicVGKB5UC0iC1CVv9ph3NKpiBlt6OBizCBiDAMBgNVHRMEBTADAQH/
MAsGA1UdDwQEAwICBDArBgNVHR8EJDAiMCCgHqAchhpodHRwOi8vZXhhbXBsZS5j
b20vY3JsLnBlbTAdBgNVHQ4EFgQUTDfDK0SfVgLthJ5zxql7kaEOj84wHwYDVR0j
BBgwFoAUk5fADVVol9QLLIRKzAWBiUGwWiMwCgYIKoZIzj0EAwIDRwAwRAIgYZvb
TcBljteLDOdWWpOquYcs9J8weyJBdWPhCbysHz4CIF8pFodt93pJZhTj0HJr/fG6
kLCVn2e5HzR1PnN58C1W
-----END CERTIFICATE-----
