Certificate:
    Data:
        Version: 3 (0x2)
        Serial Number: 2 (0x2)
    Signature Algorithm: ecdsa-with-SHA256
        Issuer: CN=estExampleTestMfg0CA1-0
        Validity
            Not Before: Apr 22 19:06:37 2019 GMT
            Not After : Apr 22 19:06:37 2039 GMT
        Subject: CN=127.0.0.1/serialNumber=SN:x, PID:x
        Subject Public Key Info:
            Public Key Algorithm: id-ecPublicKey
                Public-Key: (256 bit)
                pub: 
                    04:5a:75:d1:a7:86:20:21:28:83:b8:84:e8:3f:d2:
                    27:82:69:ca:5b:86:52:d7:4c:07:f2:6b:9d:08:1d:
                    bc:c3:b5:bd:e9:af:14:a8:89:b2:6a:b7:d8:17:dd:
                    ac:ed:eb:f7:e7:0b:74:e4:bd:31:70:11:fb:25:be:
                    e6:64:06:50:ac
                ASN1 OID: prime256v1
                NIST CURVE: P-256
        X509v3 extensions:
            X509v3 Basic Constraints: 
                CA:FALSE
            X509v3 Key Usage: 
                Digital Signature, Non Repudiation, Key Encipherment
            X509v3 Subject Alternative Name: 
                DNS:localhost, DNS:ip6-localhost, IP Address:127.0.0.1, IP Address:0:0:0:0:0:0:0:1
            X509v3 CRL Distribution Points: 

                Full Name:
                  URI:http://example.com/crl.pem

    Signature Algorithm: ecdsa-with-SHA256
         30:45:02:21:00:8b:7a:c3:ce:f5:14:e3:a3:73:27:4c:ba:a2:
         02:61:d0:92:8a:e1:84:d2:f9:d7:49:40:e0:19:51:51:0e:b1:
         3f:02:20:5d:3b:e3:4f:11:f3:52:c2:8c:bf:78:22:18:0f:de:
         30:e8:c4:3d:d5:a1:ca:ff:a0:0b:1a:c5:75:21:84:0b:19
-----BEGIN CERTIFICATE-----
MIIBwTCCAWegAwIBAgIBAjAKBggqhkjOPQQDAjAiMSAwHgYDVQQDDBdlc3RFeGFt
cGxlVGVzdE1mZzBDQTEtMDAeFw0xOTA0MjIxOTA2MzdaFw0zOTA0MjIxOTA2Mzda
MCoxEjAQBgNVBAMMCTEyNy4wLjAuMTEUMBIGA1UEBRMLU046eCwgUElEOngwWTAT
BgcqhkjOPQIBBggqhkjOPQMBBwNCAARaddGnhiAhKIO4hOg/0ieCacpbhlLXTAfy
a50IHbzDtb3prxSoibJqt9gX3azt6/fnC3TkvTFwEfslvuZkBlCso4GFMIGCMAkG
A1UdEwQCMAAwCwYDVR0PBAQDAgXgMDsGA1UdEQQ0MDKCCWxvY2FsaG9zdIINaXA2
LWxvY2FsaG9zdIcEfwAAAYcQAAAAAAAAAAAAAAAAAAAAATArBgNVHR8EJDAiMCCg
HqAchhpodHRwOi8vZXhhbXBsZS5jb20vY3JsLnBlbTAKBggqhkjOPQQDAgNIADBF
AiEAi3rDzvUU46NzJ0y6ogJh0JKK4YTS+ddJQOAZUVEOsT8CIF07408R81LCjL94
IhgP3jDoxD3Vocr/oAsaxXUhhAsZ
-----END CERTIFICATE-----
