Certificate:
    Data:
        Version: 3 (0x2)
        Serial Number: 1 (0x1)
    Signature Algorithm: ecdsa-with-SHA256
        Issuer: CN=estExampleTestMfg2CA
        Validity
            Not Before: Apr 22 19:06:37 2019 GMT
            Not After : Apr 22 19:06:37 2039 GMT
        Subject: CN=estExampleTestMfg2CA1-0
        Subject Public Key Info:
            Public Key Algorithm: id-ecPublicKey
                Public-Key: (256 bit)
                pub: 
                    04:d6:1d:1c:ea:7e:3c:d6:91:89:ff:55:38:2f:ee:
                    b0:8b:ae:00:57:02:5e:88:e5:39:3a:01:80:4f:0e:
                    09:00:6b:43:47:1b:2f:2c:72:f8:a3:fe:8e:26:21:
                    bb:65:64:2c:66:7e:cc:2b:da:a2:e4:53:f0:98:9e:
                    8c:31:2e:59:f2
                ASN1 OID: prime256v1
                NIST CURVE: P-256
        X509v3 extensions:
            X509v3 Basic Constraints: 
                CA:TRUE
            X509v3 Key Usage: 
                Certificate Sign
            X509v3 CRL Distribution Points: 

                Full Name:
                  URI:http://example.com/crl.pem

            X509v3 Subject Key Identifier: 
                26:CF:DB:8B:2F:D6:41:8A:4F:92:B8:9B:4D:2A:CF:C2:45:59:63:4B
            X509v3 Authority Key Identifier: 
                keyid:AE:08:E2:D5:C1:1E:CC:41:F5:DE:11:3B:12:71:23:74:19:D2:EB:AE

    Signature Algorithm: ecdsa-with-SHA256
         30:46:02:21:00:fa:b5:3c:2b:d4:ca:b0:5e:e3:4a:de:2f:49:
         0d:1e:42:ef:4f:4a:3c:21:96:de:17:5a:c9:b2:7b:83:b3:1e:
         47:02:21:00:86:7d:de:42:49:27:1b:76:67:84:05:20:a9:5c:
         cb:1b:d7:e1:cf:13:54:dc:bd:92:66:7d:55:21:ad:ce:33:3a
-----BEGIN CERTIFICATE-----
MIIBvTCCAWKgAwIBAgIBATAKBggqhkjOPQQDAjAfMR0wGwYDVQQDDBRlc3RFeGFt
cGxlVGVzdE1mZzJDQTAeFw0xOTA0MjIxOTA2MzdaFw0zOTA0MjIxOTA2MzdaMCIx
IDAeBgNVBAMMF2VzdEV4YW1wbGVUZXN0TWZnMkNBMS0wMFkwEwYHKoZIzj0CAQYI
KoZIzj0DAQcDQgAE1h0c6n481pGJ/1U4L+6wi64AVwJeiOU5OgGATw4JAGtDRxsv
LHL4o/6OJiG7ZWQsZn7MK9qi5FPwmJ6MMS5Z8qOBizCBiDAMBgNVHRMEBTADAQH/
MAsGA1UdDwQEAwICBDArBgNVHR8EJDAiMCCgHqAchhpodHRwOi8vZXhhbXBsZS5j
b20vY3JsLnBlbTAdBgNVHQ4EFgQUJs/biy/WQYpPkribTSrPwkVZY0swHwYDVR0j
BBgwFoAUrgji1cEezEH13hE7EnEjdBnS664wCgYIKoZIzj0EAwIDSQAwRgIhAPq1
PCvUyrBe40reL0kNHkLvT0o8IZbeF1rJsnuDsx5HAiEAhn3eQkknG3ZnhAUgqVzL
G9fhzxNU3L2SZn1VIa3OMzo=
-----END CERTIFICATE-----
