Certificate:
    Data:
        Version: 3 (0x2)
        Serial Number: 2 (0x2)
    Signature Algorithm: ecdsa-with-SHA256
        Issuer: CN=estExampleTestMfg2CA1-0
        Validity
            Not Before: Apr 22 19:06:37 2019 GMT
            Not After : Apr 22 19:06:37 2039 GMT
        Subject: CN=127.0.0.1, O=ToysRUsKnockOff
        Subject Public Key Info:
            Public Key Algorithm: id-ecPublicKey
                Public-Key: (256 bit)
                pub: 
                    04:bf:56:c9:ea:2e:25:48:42:31:8d:d3:91:2b:2b:
                    6a:7a:a6:5c:09:9e:78:93:a9:cc:f2:87:cb:6b:6c:
                    c4:19:6b:96:ec:46:90:a6:11:1f:01:6f:43:a0:51:
                    d9:18:c6:02:0c:b8:22:bd:52:d1:3d:11:ae:8b:f5:
                    4a:ae:60:25:47
                ASN1 OID: prime256v1
                NIST CURVE: P-256
        X509v3 extensions:
            X509v3 Basic Constraints: 
                CA:FALSE
            X509v3 Key Usage: 
                Digital Signature, Non Repudiation, Key Encipherment
            X509v3 Subject Alternative Name: 
                DNS:localhost, DNS:ip6-localhost, IP Address:127.0.0.1, IP Address:0:0:0:0:0:0:0:1
            X509v3 CRL Distribution Points: 

                Full Name:
                  URI:http://example.com/crl.pem

    Signature Algorithm: ecdsa-with-SHA256
         30:44:02:20:32:99:8d:69:40:35:26:49:fb:d9:2a:c5:8a:74:
         50:f4:6f:0f:c4:1d:89:04:52:35:30:86:2a:ff:ff:28:e5:fe:
         02:20:47:34:1a:a7:f3:fc:cb:00:9f:f1:b7:88:1c:24:42:d0:
         3b:8a:eb:cc:29:79:ee:92:53:c9:b8:ec:86:6c:ee:85
-----BEGIN CERTIFICATE-----
MIIBxDCCAWugAwIBAgIBAjAKBggqhkjOPQQDAjAiMSAwHgYDVQQDDBdlc3RFeGFt
cGxlVGVzdE1mZzJDQTEtMDAeFw0xOTA0MjIxOTA2MzdaFw0zOTA0MjIxOTA2Mzda
MC4xEjAQBgNVBAMMCTEyNy4wLjAuMTEYMBYGA1UECgwPVG95c1JVc0tub2NrT2Zm
MFkwEwYHKoZIzj0CAQYIKoZIzj0DAQcDQgAEv1bJ6i4lSEIxjdORKytqeqZcCZ54
k6nM8ofLa2zEGWuW7EaQphEfAW9DoFHZGMYCDLgivVLRPRGui/VKrmAlR6OBhTCB
gjAJBgNVHRMEAjAAMAsGA1UdDwQEAwIF4DA7BgNVHREENDAygglsb2NhbGhvc3SC
DWlwNi1sb2NhbGhvc3SHBH8AAAGHEAAAAAAAAAAAAAAAAAAAAAEwKwYDVR0fBCQw
IjAgoB6gHIYaaHR0cDovL2V4YW1wbGUuY29tL2NybC5wZW0wCgYIKoZIzj0EAwID
RwAwRAIgMpmNaUA1Jkn72SrFinRQ9G8PxB2JBFI1MIYq//8o5f4CIEc0Gqfz/MsA
n/G3iBwkQtA7iuvMKXnuklPJuOyGbO6F
-----END CERTIFICATE-----
