Certificate:
    Data:
        Version: 3 (0x2)
        Serial Number: 2351 (0x92f)
    Signature Algorithm: ecdsa-with-SHA256
        Issuer: CN=est-EXTERNALCA
        Validity
            Not Before: Jun 29 21:00:38 2018 GMT
            Not After : Jun 29 21:00:38 2038 GMT
        Subject: CN=localhost.cisco.com, C=US, ST=NC, L=RTP, O=Cisco Systems, OU=CiscoPKI DevTest
        Subject Public Key Info:
            Public Key Algorithm: id-ecPublicKey
                Public-Key: (256 bit)
                pub: 
                    04:ee:c1:68:f5:4c:6c:a8:c3:5f:dc:23:2d:bd:c6:
                    b4:12:cc:31:83:ae:11:29:bb:93:53:3f:db:5d:81:
                    2e:12:d2:a8:d7:a3:de:ea:fc:9f:55:e4:ba:a5:ed:
                    71:16:e8:45:3a:64:27:eb:d7:e8:85:91:1f:80:85:
                    61:0b:ad:54:b6
                ASN1 OID: prime256v1
                NIST CURVE: P-256
        X509v3 extensions:
            X509v3 Basic Constraints: 
                CA:TRUE
            X509v3 Key Usage: 
                Digital Signature, Certificate Sign
            X509v3 Subject Key Identifier: 
                4F:14:FB:F0:E9:BF:44:BA:9F:AB:25:B0:3A:37:99:70:01:0B:1B:C8
            X509v3 Authority Key Identifier: 
                keyid:1B:29:19:0F:FB:5B:1B:09:C4:92:49:2F:98:A2:6F:A5:95:7F:12:42

    Signature Algorithm: ecdsa-with-SHA256
         30:45:02:21:00:9d:7c:ee:83:4d:91:88:79:d8:a0:24:9b:96:
         05:5b:10:3a:56:53:2a:e0:9d:a0:a5:80:e0:18:3d:44:9d:d7:
         a4:02:20:5d:4a:d7:40:7b:1e:03:5b:17:d9:c7:6f:ff:e0:dd:
         18:a2:6e:41:2e:64:34:b7:c8:91:d8:3c:6d:93:ba:99:76
-----BEGIN CERTIFICATE-----
MIIB3zCCAYWgAwIBAgICCS8wCgYIKoZIzj0EAwIwGTEXMBUGA1UEAwwOZXN0LUVY
VEVSTkFMQ0EwHhcNMTgwNjI5MjEwMDM4WhcNMzgwNjI5MjEwMDM4WjB5MRwwGgYD
VQQDDBNsb2NhbGhvc3QuY2lzY28uY29tMQswCQYDVQQGEwJVUzELMAkGA1UECAwC
TkMxDDAKBgNVBAcMA1JUUDEWMBQGA1UECgwNQ2lzY28gU3lzdGVtczEZMBcGA1UE
CwwQQ2lzY29QS0kgRGV2VGVzdDBZMBMGByqGSM49AgEGCCqGSM49AwEHA0IABO7B
aPVMbKjDX9wjLb3GtBLMMYOuESm7k1M/212BLhLSqNej3ur8n1XkuqXtcRboRTpk
J+vX6IWRH4CFYQutVLajXTBbMAwGA1UdEwQFMAMBAf8wCwYDVR0PBAQDAgKEMB0G
A1UdDgQWBBRPFPvw6b9Eup+rJbA6N5lwAQsbyDAfBgNVHSMEGDAWgBQbKRkP+1sb
CcSSSS+Yom+llX8SQjAKBggqhkjOPQQDAgNIADBFAiEAnXzug02RiHnYoCSblgVb
EDpWUyrgnaClgOAYPUSd16QCIF1K10B7HgNbF9nHb//g3RiibkEuZDS3yJHYPG2T
upl2
-----END CERTIFICATE-----
