Certificate:
    Data:
        Version: 3 (0x2)
        Serial Number: 3 (0x3)
    Signature Algorithm: ecdsa-with-SHA256
        Issuer: CN=est-EXTERNALCA
        Validity
            Not Before: Jun 29 20:09:09 2018 GMT
            Not After : Jun 29 20:09:09 2038 GMT
        Subject: CN=127.0.0.1
        Subject Public Key Info:
            Public Key Algorithm: rsaEncryption
                Public-Key: (4096 bit)
                Modulus:
                    00:88:e7:4b:a7:61:c3:7a:32:79:4f:0a:65:3b:79:
                    2b:43:3e:6d:03:d0:26:98:16:6f:65:e3:0c:e6:e3:
                    58:3a:b3:01:12:57:47:37:d4:0b:ee:7b:11:26:86:
                    9d:d7:83:50:c7:14:4c:9a:56:20:db:eb:33:fe:3f:
                    74:79:63:77:98:b0:a5:bf:e5:8d:ee:f2:ad:55:0c:
                    e9:b7:df:fe:00:fe:73:4d:27:d4:c1:51:d5:0a:37:
                    aa:1a:40:fe:17:68:44:24:f4:0e:37:4f:d5:a8:9d:
                    29:19:67:7b:13:07:f9:c9:36:5c:d3:bf:e3:e5:d3:
                    b0:6a:ed:94:91:ab:d0:bf:3f:9a:b6:ef:e9:c3:79:
                    e4:14:5c:e4:8e:74:64:5a:88:a6:3a:ad:6c:f1:b7:
                    57:f5:48:44:71:c6:a4:cc:3d:df:99:38:c2:b8:c9:
                    06:a2:7d:48:dd:fc:89:32:63:a8:5b:c8:27:d0:46:
                    c5:29:61:7e:8b:41:a4:7b:f6:13:15:f3:2d:31:d4:
                    fb:0c:31:74:3a:9d:39:99:41:e2:25:ec:5f:9d:88:
                    18:d4:3e:64:83:0e:86:58:fb:49:00:4d:39:89:cf:
                    95:35:da:b5:d1:57:e3:e0:1a:04:57:34:f8:3d:e2:
                    26:b9:69:6f:ae:01:7d:7f:87:a9:2b:21:ba:e0:b4:
                    eb:95:db:fe:c3:44:49:81:11:1a:d6:52:9f:e3:57:
                    7d:80:d8:57:17:84:6e:3a:a8:88:46:93:70:81:c5:
                    68:bb:07:d5:07:b2:22:48:21:75:0e:c8:fd:b9:50:
                    e1:f3:36:68:3c:eb:17:6f:25:09:bb:47:27:39:46:
                    45:34:0f:b0:4b:2c:57:a2:58:46:a7:7d:82:17:5c:
                    95:d0:e9:3a:74:74:6d:74:5c:c9:54:84:51:f8:4f:
                    52:b3:ab:18:ca:43:93:74:1f:2d:9d:36:4e:1b:24:
                    d2:06:df:5e:a6:a2:b1:99:d7:0c:4a:b0:d6:b0:be:
                    22:bb:ee:1a:7a:24:eb:b3:f4:94:6a:2d:ae:54:65:
                    ab:38:2c:78:0d:da:db:ee:d1:45:a5:f2:86:1c:0a:
                    06:72:36:da:4a:b0:f4:20:88:d8:63:b5:6f:bb:92:
                    19:3a:73:f6:b4:34:70:e8:db:72:1f:f8:ab:88:fd:
                    7a:fc:44:c2:e3:7c:c7:7a:09:14:27:4f:57:41:11:
                    8b:27:de:5f:a8:95:b4:ed:fc:1f:6c:a0:ba:df:d0:
                    84:84:bf:73:c2:84:53:99:3d:a1:c3:60:70:89:04:
                    dd:e1:bc:f2:de:cd:55:e3:d0:0b:6a:cd:ee:52:d6:
                    cd:c1:c1:1e:58:67:63:06:ba:62:22:09:ba:00:56:
                    63:fa:0f
                Exponent: 65537 (0x10001)
        X509v3 extensions:
            X509v3 Basic Constraints: 
                CA:TRUE
            X509v3 Subject Alternative Name: 
                DNS:localhost, DNS:ip6-localhost, IP Address:127.0.0.1, IP Address:0:0:0:0:0:0:0:1
            X509v3 CRL Distribution Points: 

                Full Name:
                  URI:http://example.com/crl.pem

    Signature Algorithm: ecdsa-with-SHA256
         30:46:02:21:00:a9:34:ab:5b:22:10:01:26:52:2a:fd:da:7b:
         87:ea:9a:d3:34:b0:53:b9:ad:f6:95:60:02:1a:d1:8e:9e:e9:
         9e:02:21:00:f2:73:d9:f4:b2:6d:7d:e3:7f:32:78:1c:fb:90:
         74:56:39:75:86:1f:3e:0d:a9:50:14:e5:dd:30:90:7a:b0:e4
-----BEGIN CERTIFICATE-----
MIIDYjCCAwegAwIBAgIBAzAKBggqhkjOPQQDAjAZMRcwFQYDVQQDDA5lc3QtRVhU
RVJOQUxDQTAeFw0xODA2MjkyMDA5MDlaFw0zODA2MjkyMDA5MDlaMBQxEjAQBgNV
BAMMCTEyNy4wLjAuMTCCAiIwDQYJKoZIhvcNAQEBBQADggIPADCCAgoCggIBAIjn
S6dhw3oyeU8KZTt5K0M+bQPQJpgWb2XjDObjWDqzARJXRzfUC+57ESaGndeDUMcU
TJpWINvrM/4/dHljd5iwpb/lje7yrVUM6bff/gD+c00n1MFR1Qo3qhpA/hdoRCT0
DjdP1aidKRlnexMH+ck2XNO/4+XTsGrtlJGr0L8/mrbv6cN55BRc5I50ZFqIpjqt
bPG3V/VIRHHGpMw935k4wrjJBqJ9SN38iTJjqFvIJ9BGxSlhfotBpHv2ExXzLTHU
+wwxdDqdOZlB4iXsX52IGNQ+ZIMOhlj7SQBNOYnPlTXatdFX4+AaBFc0+D3iJrlp
b64BfX+HqSshuuC065Xb/sNESYERGtZSn+NXfYDYVxeEbjqoiEaTcIHFaLsH1Qey
IkghdQ7I/blQ4fM2aDzrF28lCbtHJzlGRTQPsEssV6JYRqd9ghdcldDpOnR0bXRc
yVSEUfhPUrOrGMpDk3QfLZ02Thsk0gbfXqaisZnXDEqw1rC+IrvuGnok67P0lGot
rlRlqzgseA3a2+7RRaXyhhwKBnI22kqw9CCI2GO1b7uSGTpz9rQ0cOjbch/4q4j9
evxEwuN8x3oJFCdPV0ERiyfeX6iVtO38H2ygut/QhIS/c8KEU5k9ocNgcIkE3eG8
8t7NVePQC2rN7lLWzcHBHlhnYwa6YiIJugBWY/oPAgMBAAGjejB4MAwGA1UdEwQF
MAMBAf8wOwYDVR0RBDQwMoIJbG9jYWxob3N0gg1pcDYtbG9jYWxob3N0hwR/AAAB
hxAAAAAAAAAAAAAAAAAAAAABMCsGA1UdHwQkMCIwIKAeoByGGmh0dHA6Ly9leGFt
cGxlLmNvbS9jcmwucGVtMAoGCCqGSM49BAMCA0kAMEYCIQCpNKtbIhABJlIq/dp7
h+qa0zSwU7mt9pVgAhrRjp7pngIhAPJz2fSybX3jfzJ4HPuQdFY5dYYfPg2pUBTl
3TCQerDk
-----END CERTIFICATE-----
-----BEGIN PRIVATE KEY-----
MIIJQQIBADANBgkqhkiG9w0BAQEFAASCCSswggknAgEAAoICAQCI50unYcN6MnlP
CmU7eStDPm0D0CaYFm9l4wzm41g6swESV0c31AvuexEmhp3Xg1DHFEyaViDb6zP+
P3R5Y3eYsKW/5Y3u8q1VDOm33/4A/nNNJ9TBUdUKN6oaQP4XaEQk9A43T9WonSkZ
Z3sTB/nJNlzTv+Pl07Bq7ZSRq9C/P5q27+nDeeQUXOSOdGRaiKY6rWzxt1f1SERx
xqTMPd+ZOMK4yQaifUjd/IkyY6hbyCfQRsUpYX6LQaR79hMV8y0x1PsMMXQ6nTmZ
QeIl7F+diBjUPmSDDoZY+0kATTmJz5U12rXRV+PgGgRXNPg94ia5aW+uAX1/h6kr
IbrgtOuV2/7DREmBERrWUp/jV32A2FcXhG46qIhGk3CBxWi7B9UHsiJIIXUOyP25
UOHzNmg86xdvJQm7Ryc5RkU0D7BLLFeiWEanfYIXXJXQ6Tp0dG10XMlUhFH4T1Kz
qxjKQ5N0Hy2dNk4bJNIG316morGZ1wxKsNawviK77hp6JOuz9JRqLa5UZas4LHgN
2tvu0UWl8oYcCgZyNtpKsPQgiNhjtW+7khk6c/a0NHDo23If+KuI/Xr8RMLjfMd6
CRQnT1dBEYsn3l+olbTt/B9soLrf0ISEv3PChFOZPaHDYHCJBN3hvPLezVXj0Atq
ze5S1s3BwR5YZ2MGumIiCboAVmP6DwIDAQABAoICAA37lGY30wUDwLt09AVQs+go
qRkZmnIwNcKHSoW5NLASIQrkL9mg5nMTeMX25oo2LFBDtNXn9BqMzwD/LtXzIH+k
6IOis44d6obkTGluZFK/qmZ3/1VGFrygwNaboBgjRcqBxC3xZoDT7yMGxwhDk/Hx
g9D7frsLla+Q19AlEgC77gEUnKCi2MvHom8hA4WdArVoNIIKWDPXj2i7gZDRb6lb
pcUagHtPe9tzHqQvOj6IQUtsNFkB+dseoj59p1IM8KcapLrdwOGiYK6pjv/mlkF7
FBDMKpdEKtlNw8ABzd2ofl9DbmHqWH5Gyf4KN/dCG53BChoQpuZupGBLuqWWykpG
1t2hXESPY1+n9G4lQsTnlFDLVCtM5KSJLrWWTb1T9nzB1A7KO8R3TLzpyszAYoM+
IwdLe+iNululaq4lOneAHwQqyXi/+SuB+Is9xihokn0HS414sEhexlcNNy8Jqudw
UJOZvGaKlc/JFK1HqgF5Y02YfYjSVhkcWAXej6SvgsdEBQ2x+SEJP/pCNq+Syo4/
0anjm8BYysAkeJq6V0jHPd9sBRQO6ni28accZH7CMLHEoRmO/UWy1yp2m3JTMTq8
IdzcvuK4R4E/VPterkqHPKgSmPP1rH3ak26rSOkOzjWm9Yjpwpm396FyMk7EhhMI
LHgIClkzJcJTp6zLFcKBAoIBAQC1Dtw328yldBhxxWK6JgcVubBy166MmU71KKL5
60Atsna0Umq/YiXHUYtpS3IldkuyUz8jJGBjwfclLkd7qXri/1/Apw9Xuv1SoRAR
8HWI+Y0Q6fGVKplcFfRZaAq/iFOguLlWyoASzxn10/ddmc1CPPzh5XIdkB7om7C8
026d2tcYPt/8rNTr3b034v8pHg+zc4zOod2LSqKCd/wnR5Nre74ZItKwhWUl5UIB
ajH65to0JUfte7UD8e9QWhfPf4+2TQRt0Q632et5Eh46Zf5folat6nioq8InsHO0
VmGZHvTqt65dzE2SXEmkNf+y63ZCzN3m0UEEq0VDTn4rgFpBAoIBAQDBkcNrw8Wk
2xW2/A1hlKLPM6qFa9Dyq07ZbH4PTIpNP0LLK3ayVDtILQ6jW1s/Wg9IdkQHOs5Q
KwJr6PUfhXdeoKWnld9OAH09xrX3mohyXCSf0uosI34+xQv6swU3gSWzHpmDPcj6
T7uhlcMOGSuxzt8B58X+joeP0pyjM781EHAPFlQ7c1QA6VKa9K+0nhtgQoRseaFI
c5zxGTUIVuFnDubsvKBxYvfhXS6ObDcdfpF9t20gCHizkjGBInWj7/51HJ+I1u4j
yNLAAYM962E/p624kH7awjwQHlD7wd8FYQDKnP/kMN2L3oZg/l2c7460wpmGaAmn
BFq2j5g+gCBPAoIBACe2rbkW3imAcIgr+n7ILo+mXjyicGfojLgbhLv6zOX5Gi5t
UXrPJWg1y7V51fy/mNTxi4zCwt2+wt4F66oFP64gw7j3K9dbbYs9RtAYhT9ZNYb7
OYE1idP4ANPHjWv7lBRR0F1oJ3V4tcIFD2IZhTs9M169PC2d2hm9ZKPWYJIBWWK5
D9pVcpKV3ZYvlTZIoLsE4mLEgFq4MTMa7FUVTxGpX8YVrE8Jw2jvg23aBEJ7dmsv
rjo6AzdtTse6KzTZTwV2mT0ZOPg8tXil77lxe70wV4DoSDT/D6QzAP4SYG/8qU3+
oiFy2aT71y9MpNxy50q5swaY6YEDrDqaMfSKv8ECggEATtTQI1ktasAWjdkEkhL4
Yy4FaiTIiauehwmaJRzkziTPTPK8ek+3fONsrLaN6LUCuF4Bwnf+gcOiTtQmz9mJ
Da6bCC8PLDMizj/Y56e1ne1MtRIucB9cUK/q+wRhQYOFGPeDSWGmMdq67UmSkHFL
zDQVui7sAYmGR9pcFFMEsdWp7VsIntWPBnf/PkAcNpCVUZSFXbADMQB0j/PWFzla
vp/hB9Sh+st1bACI71O+9nIPSoWjGYKZtXf6VT71bfhVRtiLWC0/+q7UtYFoM5Vi
m4vsQdgG8Yxc7auLC5ye+Q/SRLG/vOzxrP7I90NgWINvOMpvv78q/yvUzbiZJgsE
HQKCAQANRwjAYaLDngZuZp8c7Z8KZJ9VlIrrc6TEDLKK3NJZ11z6AIHP6Lo2+S/J
dPxL3UXsmbkNlhTszn5+sp/4Tg97P0N/aaaa2uythXgMfbRvLLwlmcsuOSmi9RaU
y6WsMKEpdew+X3F0ymeT41iRhyhBgIGEblZZbeOpWZDR5cLaD1IE6Afaie/JykUe
9fpTlHY24D4YAGpl6YfTxcJIJ0JYmrBWdYFfb9ujON/hglFBysaRfUKPc6m6N1Oo
3s7+Qe/tcpCWOKCXB3QOCJlKOckMLK4bxzRsQro9GXvuHOOxSGXhiWljtly7KvAF
jG42SOHLvTXRrIda+XTMBj58iohh
-----END PRIVATE KEY-----
