Certificate:
    Data:
        Version: 3 (0x2)
        Serial Number: 1 (0x1)
    Signature Algorithm: ecdsa-with-SHA256
        Issuer: CN=estExampleTestMfg4CA
        Validity
            Not Before: Apr 22 19:06:37 2019 GMT
            Not After : Apr 22 19:06:37 2039 GMT
        Subject: CN=estExampleTestMfg4CA1-0
        Subject Public Key Info:
            Public Key Algorithm: id-ecPublicKey
                Public-Key: (256 bit)
                pub: 
                    04:ac:fa:56:6d:df:6f:90:27:80:1b:08:85:32:51:
                    c4:0a:77:48:48:8d:d8:95:c0:07:97:a8:58:22:c1:
                    dd:bd:35:0a:04:d8:99:8f:5f:e8:1a:9a:53:42:e6:
                    8d:10:1d:f4:8b:18:75:52:82:8c:76:39:ec:13:b2:
                    a2:5f:84:29:82
                ASN1 OID: prime256v1
                NIST CURVE: P-256
        X509v3 extensions:
            X509v3 Basic Constraints: 
                CA:TRUE
            X509v3 Key Usage: 
                Certificate Sign
            X509v3 CRL Distribution Points: 

                Full Name:
                  URI:http://example.com/crl.pem

            X509v3 Subject Key Identifier: 
                34:46:57:88:E1:33:87:14:02:E5:0C:48:E1:30:32:F0:26:50:E1:DC
            X509v3 Authority Key Identifier: 
                keyid:6A:F3:70:30:A5:A9:E4:1A:97:C5:EA:45:32:3F:8C:43:3E:AF:D7:E0

    Signature Algorithm: ecdsa-with-SHA256
         30:46:02:21:00:c0:60:47:94:dc:8b:12:17:52:84:b1:97:8e:
         79:0f:fa:ff:8b:89:82:8e:30:8b:64:4e:c1:58:19:46:75:35:
         75:02:21:00:a8:55:2e:19:18:30:04:53:ac:5c:2f:53:a9:c3:
         40:4d:b1:4d:e5:52:cd:7d:fb:6e:e9:21:1f:5e:25:83:15:3f
-----BEGIN CERTIFICATE-----
MIIBvTCCAWKgAwIBAgIBATAKBggqhkjOPQQDAjAfMR0wGwYDVQQDDBRlc3RFeGFt
cGxlVGVzdE1mZzRDQTAeFw0xOTA0MjIxOTA2MzdaFw0zOTA0MjIxOTA2MzdaMCIx
IDAeBgNVBAMMF2VzdEV4YW1wbGVUZXN0TWZnNENBMS0wMFkwEwYHKoZIzj0CAQYI
KoZIzj0DAQcDQgAErPpWbd9vkCeAGwiFMlHECndISI3YlcAHl6hYIsHdvTUKBNiZ
j1/oGppTQuaNEB30ixh1UoKMdjnsE7KiX4QpgqOBizCBiDAMBgNVHRMEBTADAQH/
MAsGA1UdDwQEAwICBDArBgNVHR8EJDAiMCCgHqAchhpodHRwOi8vZXhhbXBsZS5j
b20vY3JsLnBlbTAdBgNVHQ4EFgQUNEZXiOEzhxQC5QxI4TAy8CZQ4dwwHwYDVR0j
BBgwFoAUavNwMKWp5BqXxepFMj+MQz6v1+AwCgYIKoZIzj0EAwIDSQAwRgIhAMBg
R5TcixIXUoSxl455D/r/i4mCjjCLZE7BWBlGdTV1AiEAqFUuGRgwBFOsXC9TqcNA
TbFN5VLNfftu6SEfXiWDFT8=
-----END CERTIFICATE-----
