Certificate:
    Data:
        Version: 3 (0x2)
        Serial Number: 2 (0x2)
    Signature Algorithm: ecdsa-with-SHA256
        Issuer: CN=estExampleTestMfg4CA1-0
        Validity
            Not Before: Apr 22 19:06:37 2019 GMT
            Not After : Apr 22 19:06:37 2039 GMT
        Subject: CN=127.0.0.1/uniqueMember=TheSecretCertClub
        Subject Public Key Info:
            Public Key Algorithm: id-ecPublicKey
                Public-Key: (256 bit)
                pub: 
                    04:36:fb:ea:63:38:fc:a8:dd:12:f1:4b:37:c3:4f:
                    6a:31:29:e2:4b:1c:ba:b9:dd:84:51:03:44:b5:87:
                    d5:ed:5f:32:40:39:5b:31:2d:32:ba:0f:62:e5:7b:
                    37:3e:b0:62:75:58:93:8b:7a:ad:28:e9:96:66:1b:
                    ee:af:3f:5b:5b
                ASN1 OID: prime256v1
                NIST CURVE: P-256
        X509v3 extensions:
            X509v3 Basic Constraints: 
                CA:FALSE
            X509v3 Key Usage: 
                Digital Signature, Non Repudiation, Key Encipherment
            X509v3 Subject Alternative Name: 
                DNS:localhost, DNS:ip6-localhost, IP Address:127.0.0.1, IP Address:0:0:0:0:0:0:0:1
            X509v3 CRL Distribution Points: 

                Full Name:
                  URI:http://example.com/crl.pem

    Signature Algorithm: ecdsa-with-SHA256
         30:45:02:20:53:27:9e:76:0a:e1:da:5b:ea:be:ce:d5:c8:f8:
         85:4b:54:ff:5d:b7:c9:78:01:e4:7e:37:99:ea:35:3a:37:44:
         02:21:00:f1:f2:39:ee:e8:ba:c4:78:01:2f:e9:75:df:e9:b6:
         3b:53:6d:cd:07:28:e5:a4:f1:8f:3c:40:7a:09:4c:0b:3c
-----BEGIN CERTIFICATE-----
MIIBxzCCAW2gAwIBAgIBAjAKBggqhkjOPQQDAjAiMSAwHgYDVQQDDBdlc3RFeGFt
cGxlVGVzdE1mZzRDQTEtMDAeFw0xOTA0MjIxOTA2MzdaFw0zOTA0MjIxOTA2Mzda
MDAxEjAQBgNVBAMMCTEyNy4wLjAuMTEaMBgGA1UEMgwRVGhlU2VjcmV0Q2VydENs
dWIwWTATBgcqhkjOPQIBBggqhkjOPQMBBwNCAAQ2++pjOPyo3RLxSzfDT2oxKeJL
HLq53YRRA0S1h9XtXzJAOVsxLTK6D2Llezc+sGJ1WJOLeq0o6ZZmG+6vP1tbo4GF
MIGCMAkGA1UdEwQCMAAwCwYDVR0PBAQDAgXgMDsGA1UdEQQ0MDKCCWxvY2FsaG9z
dIINaXA2LWxvY2FsaG9zdIcEfwAAAYcQAAAAAAAAAAAAAAAAAAAAATArBgNVHR8E
JDAiMCCgHqAchhpodHRwOi8vZXhhbXBsZS5jb20vY3JsLnBlbTAKBggqhkjOPQQD
AgNIADBFAiBTJ552CuHaW+q+ztXI+IVLVP9dt8l4AeR+N5nqNTo3RAIhAPHyOe7o
usR4AS/pdd/ptjtTbc0HKOWk8Y88QHoJTAs8
-----END CERTIFICATE-----
