Certificate:
    Data:
        Version: 3 (0x2)
        Serial Number: 2 (0x2)
        Signature Algorithm: ecdsa-with-SHA256
        Issuer: CN=estExampleTestMfg0CA1-0
        Validity
            Not Before: Jan 21 17:04:29 2020 GMT
            Not After : Jan 21 17:04:29 2040 GMT
        Subject: CN=127.0.0.1/serialNumber=SN:x, PID:x
        Subject Public Key Info:
            Public Key Algorithm: id-ecPublicKey
                Public-Key: (256 bit)
                pub:
                    04:d3:34:f5:aa:66:06:18:55:89:c5:74:b9:55:db:
                    f9:61:ce:c3:12:6a:77:ae:32:c9:c1:3d:08:af:a1:
                    1f:3f:d0:6d:d0:66:eb:4a:47:cf:b1:bb:a4:61:da:
                    53:b1:8d:41:3a:83:17:42:7b:76:b5:15:c3:fc:9d:
                    01:74:76:16:6c
                ASN1 OID: prime256v1
                NIST CURVE: P-256
        X509v3 extensions:
            X509v3 Basic Constraints: 
                CA:FALSE
            X509v3 Key Usage: 
                Digital Signature, Non Repudiation, Key Encipherment
            X509v3 Subject Alternative Name: 
                DNS:localhost, DNS:ip6-localhost, IP Address:127.0.0.1, IP Address:0:0:0:0:0:0:0:1
            X509v3 CRL Distribution Points: 

                Full Name:
                  URI:http://example.com/crl.pem

    Signature Algorithm: ecdsa-with-SHA256
         30:44:02:20:4f:60:0a:e7:d5:66:36:9a:89:ad:cd:3c:a8:b1:
         fe:a7:0f:4e:18:8f:0c:32:06:59:2b:58:a0:3e:1e:2f:1b:0e:
         02:20:7f:af:bd:dd:5a:7e:bf:bb:ea:59:d4:85:5a:06:14:8b:
         4d:8d:cd:93:f3:95:c2:7c:cd:c6:ee:1d:02:ec:19:91
-----BEGIN CERTIFICATE-----
MIIBwDCCAWegAwIBAgIBAjAKBggqhkjOPQQDAjAiMSAwHgYDVQQDDBdlc3RFeGFt
cGxlVGVzdE1mZzBDQTEtMDAeFw0yMDAxMjExNzA0MjlaFw00MDAxMjExNzA0Mjla
MCoxEjAQBgNVBAMMCTEyNy4wLjAuMTEUMBIGA1UEBRMLU046eCwgUElEOngwWTAT
BgcqhkjOPQIBBggqhkjOPQMBBwNCAATTNPWqZgYYVYnFdLlV2/lhzsMSaneuMsnB
PQivoR8/0G3QZutKR8+xu6Rh2lOxjUE6gxdCe3a1FcP8nQF0dhZso4GFMIGCMAkG
A1UdEwQCMAAwCwYDVR0PBAQDAgXgMDsGA1UdEQQ0MDKCCWxvY2FsaG9zdIINaXA2
LWxvY2FsaG9zdIcEfwAAAYcQAAAAAAAAAAAAAAAAAAAAATArBgNVHR8EJDAiMCCg
HqAchhpodHRwOi8vZXhhbXBsZS5jb20vY3JsLnBlbTAKBggqhkjOPQQDAgNHADBE
AiBPYArn1WY2momtzTyosf6nD04YjwwyBlkrWKA+Hi8bDgIgf6+93Vp+v7vqWdSF
WgYUi02NzZPzlcJ8zcbuHQLsGZE=
-----END CERTIFICATE-----
-----BEGIN PRIVATE KEY-----
MIGHAgEAMBMGByqGSM49AgEGCCqGSM49AwEHBG0wawIBAQQgdRW3sI13Nwp9EYY3
JsgWZXbQwpxmf9NgwjCCl6mQYR6hRANCAATTNPWqZgYYVYnFdLlV2/lhzsMSaneu
MsnBPQivoR8/0G3QZutKR8+xu6Rh2lOxjUE6gxdCe3a1FcP8nQF0dhZs
-----END PRIVATE KEY-----
