Certificate:
    Data:
        Version: 3 (0x2)
        Serial Number: 5 (0x5)
    Signature Algorithm: ecdsa-with-SHA1
        Issuer: CN=estExampleCA
        Validity
            Not Before: Jul  2 17:31:20 2013 GMT
            Not After : Jul  2 17:31:20 2014 GMT
        Subject: CN=explicit-cert-test
        Subject Public Key Info:
            Public Key Algorithm: id-ecPublicKey
                Public-Key: (256 bit)
                pub: 
                    04:77:21:14:83:81:f3:e8:66:41:18:b3:61:19:3d:
                    a2:39:0a:1b:b3:aa:4c:04:6f:40:23:2d:5c:01:6f:
                    42:d0:53:d8:aa:8f:7d:c8:7f:5b:66:48:c7:bb:80:
                    c8:d1:99:51:32:f3:66:3e:42:89:2b:d2:9f:80:72:
                    95:5f:17:8f:59
                ASN1 OID: prime256v1
        X509v3 extensions:
            X509v3 Basic Constraints: 
                CA:FALSE
            X509v3 Subject Key Identifier: 
                FB:DE:4D:2E:0E:70:4E:69:18:40:DE:5A:1F:BD:71:2F:C5:B4:49:B2
            X509v3 Authority Key Identifier: 
                keyid:66:E5:56:CA:93:2B:02:0B:57:A4:D4:E2:ED:5F:CA:A4:EE:7D:83:F9

    Signature Algorithm: ecdsa-with-SHA1
         30:46:02:21:00:90:f9:96:c2:e1:66:dc:c9:9a:7c:ef:3d:7d:
         21:ac:5f:e9:a6:da:90:4d:6b:e2:1e:1b:d8:1d:c0:f6:6a:1f:
         08:02:21:00:cc:3d:67:98:31:5f:27:01:13:62:e9:13:6c:a5:
         31:a1:85:5c:5f:14:cc:a3:71:c9:41:0a:8e:a0:c7:b9:ec:69
-----BEGIN CERTIFICATE-----
MIIBbzCCARWgAwIBAgIBBTAJBgcqhkjOPQQBMBcxFTATBgNVBAMTDGVzdEV4YW1w
bGVDQTAeFw0xMzA3MDIxNzMxMjBaFw0xNDA3MDIxNzMxMjBaMB0xGzAZBgNVBAMM
EmV4cGxpY2l0LWNlcnQtdGVzdDBZMBMGByqGSM49AgEGCCqGSM49AwEHA0IABHch
FIOB8+hmQRizYRk9ojkKG7OqTARvQCMtXAFvQtBT2KqPfch/W2ZIx7uAyNGZUTLz
Zj5CiSvSn4BylV8Xj1mjTTBLMAkGA1UdEwQCMAAwHQYDVR0OBBYEFPveTS4OcE5p
GEDeWh+9cS/FtEmyMB8GA1UdIwQYMBaAFGblVsqTKwILV6TU4u1fyqTufYP5MAkG
ByqGSM49BAEDSQAwRgIhAJD5lsLhZtzJmnzvPX0hrF/pptqQTWviHhvYHcD2ah8I
AiEAzD1nmDFfJwETYukTbKUxoYVcXxTMo3HJQQqOoMe57Gk=
-----END CERTIFICATE-----
