Certificate:
    Data:
        Version: 3 (0x2)
        Serial Number: 820 (0x334)
    Signature Algorithm: ecdsa-with-SHA1
        Issuer: CN=estExampleCA
        Validity
            Not Before: Jul  3 12:49:46 2014 GMT
            Not After : Jun 15 12:49:46 2026 GMT
        Subject: CN=explicit-cert-test
        Subject Public Key Info:
            Public Key Algorithm: id-ecPublicKey
                Public-Key: (256 bit)
                pub: 
                    04:77:21:14:83:81:f3:e8:66:41:18:b3:61:19:3d:
                    a2:39:0a:1b:b3:aa:4c:04:6f:40:23:2d:5c:01:6f:
                    42:d0:53:d8:aa:8f:7d:c8:7f:5b:66:48:c7:bb:80:
                    c8:d1:99:51:32:f3:66:3e:42:89:2b:d2:9f:80:72:
                    95:5f:17:8f:59
                ASN1 OID: prime256v1
        X509v3 extensions:
            X509v3 Basic Constraints: 
                CA:FALSE
            X509v3 Subject Key Identifier: 
                FB:DE:4D:2E:0E:70:4E:69:18:40:DE:5A:1F:BD:71:2F:C5:B4:49:B2
            X509v3 Authority Key Identifier: 
                keyid:66:E5:56:CA:93:2B:02:0B:57:A4:D4:E2:ED:5F:CA:A4:EE:7D:83:F9

    Signature Algorithm: ecdsa-with-SHA1
         30:44:02:20:35:af:8d:40:ec:b9:5c:d3:a6:c0:1e:a6:f6:31:
         b3:04:39:cd:06:6e:b0:68:1b:9b:06:39:da:7b:f0:d5:c4:f5:
         02:20:5b:d6:49:cc:1a:c1:b8:ff:c6:b5:0b:eb:de:40:6d:5c:
         3b:ec:82:2a:3e:61:93:6c:a7:36:9b:70:10:95:d4:c6
-----BEGIN CERTIFICATE-----
MIIBbjCCARagAwIBAgICAzQwCQYHKoZIzj0EATAXMRUwEwYDVQQDEwxlc3RFeGFt
cGxlQ0EwHhcNMTQwNzAzMTI0OTQ2WhcNMjYwNjE1MTI0OTQ2WjAdMRswGQYDVQQD
ExJleHBsaWNpdC1jZXJ0LXRlc3QwWTATBgcqhkjOPQIBBggqhkjOPQMBBwNCAAR3
IRSDgfPoZkEYs2EZPaI5ChuzqkwEb0AjLVwBb0LQU9iqj33If1tmSMe7gMjRmVEy
82Y+Qokr0p+AcpVfF49Zo00wSzAJBgNVHRMEAjAAMB0GA1UdDgQWBBT73k0uDnBO
aRhA3lofvXEvxbRJsjAfBgNVHSMEGDAWgBRm5VbKkysCC1ek1OLtX8qk7n2D+TAJ
BgcqhkjOPQQBA0cAMEQCIDWvjUDsuVzTpsAepvYxswQ5zQZusGgbmwY52nvw1cT1
AiBb1knMGsG4/8a1C+veQG1cO+yCKj5hk2ynNptwEJXUxg==
-----END CERTIFICATE-----
