Certificate:
    Data:
        Version: 3 (0x2)
        Serial Number: 4 (0x4)
    Signature Algorithm: ecdsa-with-SHA1
        Issuer: CN=estEXTERNALCA
        Validity
            Not Before: Jul  3 12:50:28 2014 GMT
            Not After : Jun 15 12:50:28 2026 GMT
        Subject: CN=implicit-cert-test
        Subject Public Key Info:
            Public Key Algorithm: id-ecPublicKey
                Public-Key: (256 bit)
                pub: 
                    04:fc:e9:72:79:49:21:fd:7a:f6:79:eb:71:11:a6:
                    db:bf:20:78:a2:b2:24:eb:d5:c1:71:74:b3:81:79:
                    9a:28:e6:3c:f8:cf:d3:51:85:12:9f:c1:d7:2e:14:
                    5e:d6:8a:4c:1b:03:ba:09:91:bc:c7:99:07:af:67:
                    c4:7f:0c:f7:5d
                ASN1 OID: prime256v1
        X509v3 extensions:
            X509v3 Basic Constraints: 
                CA:FALSE
            X509v3 Subject Key Identifier: 
                84:DA:08:F7:CE:3D:6D:42:06:FE:64:D0:20:2A:7D:AE:70:53:9E:F6
            X509v3 Authority Key Identifier: 
                keyid:CF:B1:92:EB:0E:B3:8A:DC:0E:E9:55:50:4E:55:AD:A6:45:5C:58:B1

    Signature Algorithm: ecdsa-with-SHA1
         30:46:02:21:00:da:63:a6:69:de:f9:b6:7f:ef:64:ba:2e:de:
         66:52:fc:7c:bf:d3:a2:c2:85:10:34:7f:4f:e2:81:73:c4:f6:
         1e:02:21:00:c0:91:e2:90:ce:69:fb:c3:57:e5:16:34:e1:27:
         96:74:8d:39:a2:b8:9c:bb:ac:a8:bb:08:81:d5:55:1a:fe:89
-----BEGIN CERTIFICATE-----
MIIBcDCCARagAwIBAgIBBDAJBgcqhkjOPQQBMBgxFjAUBgNVBAMTDWVzdEVYVEVS
TkFMQ0EwHhcNMTQwNzAzMTI1MDI4WhcNMjYwNjE1MTI1MDI4WjAdMRswGQYDVQQD
ExJpbXBsaWNpdC1jZXJ0LXRlc3QwWTATBgcqhkjOPQIBBggqhkjOPQMBBwNCAAT8
6XJ5SSH9evZ563ERptu/IHiisiTr1cFxdLOBeZoo5jz4z9NRhRKfwdcuFF7Wikwb
A7oJkbzHmQevZ8R/DPddo00wSzAJBgNVHRMEAjAAMB0GA1UdDgQWBBSE2gj3zj1t
Qgb+ZNAgKn2ucFOe9jAfBgNVHSMEGDAWgBTPsZLrDrOK3A7pVVBOVa2mRVxYsTAJ
BgcqhkjOPQQBA0kAMEYCIQDaY6Zp3vm2f+9kui7eZlL8fL/TosKFEDR/T+KBc8T2
HgIhAMCR4pDOafvDV+UWNOEnlnSNOaK4nLusqLsIgdVVGv6J
-----END CERTIFICATE-----
