Certificate:
    Data:
        Version: 3 (0x2)
        Serial Number: 1 (0x1)
    Signature Algorithm: ecdsa-with-SHA1
        Issuer: CN=estEXTERNALCA
        Validity
            Not Before: Jul  2 17:32:23 2013 GMT
            Not After : Jul  2 17:32:23 2014 GMT
        Subject: CN=implicit-cert-test
        Subject Public Key Info:
            Public Key Algorithm: id-ecPublicKey
                Public-Key: (256 bit)
                pub: 
                    04:fc:e9:72:79:49:21:fd:7a:f6:79:eb:71:11:a6:
                    db:bf:20:78:a2:b2:24:eb:d5:c1:71:74:b3:81:79:
                    9a:28:e6:3c:f8:cf:d3:51:85:12:9f:c1:d7:2e:14:
                    5e:d6:8a:4c:1b:03:ba:09:91:bc:c7:99:07:af:67:
                    c4:7f:0c:f7:5d
                ASN1 OID: prime256v1
        X509v3 extensions:
            X509v3 Basic Constraints: 
                CA:FALSE
            X509v3 Subject Key Identifier: 
                84:DA:08:F7:CE:3D:6D:42:06:FE:64:D0:20:2A:7D:AE:70:53:9E:F6
            X509v3 Authority Key Identifier: 
                keyid:CF:B1:92:EB:0E:B3:8A:DC:0E:E9:55:50:4E:55:AD:A6:45:5C:58:B1

    Signature Algorithm: ecdsa-with-SHA1
         30:45:02:20:54:a9:ba:f5:99:e6:b6:9c:ce:15:02:be:50:e5:
         26:5e:d8:ca:c2:c2:01:64:9e:86:0c:3f:5e:6e:a5:2d:f7:60:
         02:21:00:cc:1d:f5:ca:8f:94:8e:26:f1:cf:34:d7:b6:29:f5:
         74:08:40:9e:19:dd:73:65:38:dc:18:52:c5:bf:2c:2a:a2
-----BEGIN CERTIFICATE-----
MIIBbzCCARagAwIBAgIBATAJBgcqhkjOPQQBMBgxFjAUBgNVBAMTDWVzdEVYVEVS
TkFMQ0EwHhcNMTMwNzAyMTczMjIzWhcNMTQwNzAyMTczMjIzWjAdMRswGQYDVQQD
DBJpbXBsaWNpdC1jZXJ0LXRlc3QwWTATBgcqhkjOPQIBBggqhkjOPQMBBwNCAAT8
6XJ5SSH9evZ563ERptu/IHiisiTr1cFxdLOBeZoo5jz4z9NRhRKfwdcuFF7Wikwb
A7oJkbzHmQevZ8R/DPddo00wSzAJBgNVHRMEAjAAMB0GA1UdDgQWBBSE2gj3zj1t
Qgb+ZNAgKn2ucFOe9jAfBgNVHSMEGDAWgBTPsZLrDrOK3A7pVVBOVa2mRVxYsTAJ
BgcqhkjOPQQBA0gAMEUCIFSpuvWZ5raczhUCvlDlJl7YysLCAWSehgw/Xm6lLfdg
AiEAzB31yo+UjibxzzTXtin1dAhAnhndc2U43BhSxb8sKqI=
-----END CERTIFICATE-----
