Certificate:
    Data:
        Version: 3 (0x2)
        Serial Number: 1222 (0x4c6)
    Signature Algorithm: ecdsa-with-SHA256
        Issuer: CN=estExampleCA
        Validity
            Not Before: Feb  6 15:23:17 2017 GMT
            Not After : Jan 19 15:23:17 2029 GMT
        Subject: CN=revoked-cert-test
        Subject Public Key Info:
            Public Key Algorithm: rsaEncryption
                Public-Key: (4096 bit)
                Modulus:
                    00:b4:5a:ea:a2:72:74:22:a2:b1:65:d7:17:22:79:
                    a3:f2:df:7c:06:1e:b0:54:1b:a9:85:04:6d:da:dd:
                    32:30:eb:06:37:15:ee:0c:e2:44:c3:40:e7:02:d3:
                    00:7e:11:58:d1:43:6c:23:d1:9c:87:a8:34:22:c1:
                    a4:7b:e7:ca:6d:96:9b:08:df:a1:da:ac:ae:69:7a:
                    15:98:3b:32:fe:94:c9:eb:52:ff:61:c2:ac:2b:eb:
                    c4:24:9d:cb:f6:cb:04:0c:d8:66:68:37:fe:4e:e5:
                    b0:99:57:e9:8c:b2:13:cf:f4:82:ff:a6:86:2f:6a:
                    01:31:d8:8e:4e:36:bc:19:8b:18:ed:3f:de:c2:cc:
                    7a:e9:f4:ca:40:0b:d6:b5:b7:65:9c:c6:12:3b:cd:
                    e1:43:6d:2e:b9:5b:0d:b1:f9:38:a7:ae:11:41:48:
                    93:b4:af:97:c4:17:3b:18:f5:15:41:1a:48:57:81:
                    75:67:6f:97:bc:66:a4:e6:83:d3:a5:02:54:65:16:
                    91:9b:27:77:11:85:2b:c8:79:19:3b:3b:d4:5c:f4:
                    f4:83:ac:f6:19:7c:f7:ee:d7:56:86:77:89:fc:b3:
                    c4:70:72:2f:7f:2c:1f:2b:72:b7:8e:ec:05:22:72:
                    a9:35:3f:53:ad:c1:9d:05:ec:bc:69:14:48:54:16:
                    3c:0f:74:03:cf:7b:a4:40:b9:be:cf:85:d7:5f:7b:
                    fc:34:5b:50:e1:1e:69:e1:dc:d3:95:3b:d0:61:c4:
                    1c:bb:27:10:e0:81:d8:da:87:f2:db:e9:26:7b:e1:
                    60:92:d0:a5:61:09:e0:ea:f9:b4:f5:d8:2f:d5:14:
                    2b:50:5f:a1:2e:ad:42:9b:b2:7d:bb:66:4d:cc:70:
                    09:7c:c0:a9:58:ca:2b:4a:6a:30:69:45:7f:1f:a5:
                    d6:1f:90:49:57:4a:10:c5:47:79:e7:6f:b5:d0:39:
                    31:3d:b5:5e:01:ec:11:c5:e0:c6:7b:fa:43:59:84:
                    25:da:1b:23:92:9b:90:ce:2d:da:a1:f7:da:6c:9e:
                    38:88:8e:fb:44:96:ef:09:94:85:e3:35:ec:74:1d:
                    ff:f6:ac:9a:a9:34:fb:79:b9:57:fa:ce:19:7c:be:
                    84:a4:10:aa:46:28:e0:21:bc:a3:62:95:65:4c:a7:
                    cc:d3:cb:6a:85:a1:bd:f8:98:e6:f7:ff:85:7a:25:
                    39:b5:6e:39:aa:7a:c5:02:24:89:d9:82:9b:eb:39:
                    44:15:d7:3c:ac:d9:b1:3b:60:bc:9e:a9:de:c6:53:
                    4c:c5:b0:28:eb:98:d3:56:df:9a:e7:2d:ce:62:f6:
                    c1:ab:cc:77:04:a3:7e:7f:14:9a:19:f4:47:66:40:
                    81:aa:95
                Exponent: 65537 (0x10001)
        X509v3 extensions:
            X509v3 Basic Constraints: 
                CA:FALSE
            X509v3 Subject Key Identifier: 
                FF:CF:43:42:AA:8F:68:21:4B:EC:F5:79:0E:B8:4D:FC:B4:4C:EA:80
            X509v3 Authority Key Identifier: 
                keyid:66:E5:56:CA:93:2B:02:0B:57:A4:D4:E2:ED:5F:CA:A4:EE:7D:83:F9

    Signature Algorithm: ecdsa-with-SHA256
         30:45:02:20:14:84:2c:85:af:36:6d:7e:c6:77:06:73:87:b9:
         2a:5f:8e:f6:c4:90:31:f1:6e:c3:2b:1d:bf:0f:71:e4:06:1a:
         02:21:00:bf:cc:6f:e5:95:a8:21:87:03:c3:cc:b6:d5:df:0f:
         7a:4f:dc:e0:42:26:55:50:19:b5:39:c6:60:12:2e:8d:ed
-----BEGIN CERTIFICATE-----
MIIDOzCCAuGgAwIBAgICBMYwCgYIKoZIzj0EAwIwFzEVMBMGA1UEAxMMZXN0RXhh
bXBsZUNBMB4XDTE3MDIwNjE1MjMxN1oXDTI5MDExOTE1MjMxN1owHDEaMBgGA1UE
AwwRcmV2b2tlZC1jZXJ0LXRlc3QwggIiMA0GCSqGSIb3DQEBAQUAA4ICDwAwggIK
AoICAQC0WuqicnQiorFl1xcieaPy33wGHrBUG6mFBG3a3TIw6wY3Fe4M4kTDQOcC
0wB+EVjRQ2wj0ZyHqDQiwaR758ptlpsI36HarK5pehWYOzL+lMnrUv9hwqwr68Qk
ncv2ywQM2GZoN/5O5bCZV+mMshPP9IL/poYvagEx2I5ONrwZixjtP97CzHrp9MpA
C9a1t2WcxhI7zeFDbS65Ww2x+TinrhFBSJO0r5fEFzsY9RVBGkhXgXVnb5e8ZqTm
g9OlAlRlFpGbJ3cRhSvIeRk7O9Rc9PSDrPYZfPfu11aGd4n8s8Rwci9/LB8rcreO
7AUicqk1P1OtwZ0F7LxpFEhUFjwPdAPPe6RAub7Phddfe/w0W1DhHmnh3NOVO9Bh
xBy7JxDggdjah/Lb6SZ74WCS0KVhCeDq+bT12C/VFCtQX6EurUKbsn27Zk3McAl8
wKlYyitKajBpRX8fpdYfkElXShDFR3nnb7XQOTE9tV4B7BHF4MZ7+kNZhCXaGyOS
m5DOLdqh99psnjiIjvtElu8JlIXjNex0Hf/2rJqpNPt5uVf6zhl8voSkEKpGKOAh
vKNilWVMp8zTy2qFob34mOb3/4V6JTm1bjmqesUCJInZgpvrOUQV1zys2bE7YLye
qd7GU0zFsCjrmNNW35rnLc5i9sGrzHcEo35/FJoZ9EdmQIGqlQIDAQABo00wSzAJ
BgNVHRMEAjAAMB0GA1UdDgQWBBT/z0NCqo9oIUvs9XkOuE38tEzqgDAfBgNVHSME
GDAWgBRm5VbKkysCC1ek1OLtX8qk7n2D+TAKBggqhkjOPQQDAgNIADBFAiAUhCyF
rzZtfsZ3BnOHuSpfjvbEkDHxbsMrHb8PceQGGgIhAL/Mb+WVqCGHA8PMttXfD3pP
3OBCJlVQGbU5xmASLo3t
-----END CERTIFICATE-----
