Certificate:
    Data:
        Version: 3 (0x2)
        Serial Number: 2 (0x2)
    Signature Algorithm: ecdsa-with-SHA1
        Issuer: CN=estEXTERNALCA
        Validity
            Not Before: Jul  2 17:32:50 2013 GMT
            Not After : Jul  2 17:32:50 2014 GMT
        Subject: CN=revoked-cert-test
        Subject Public Key Info:
            Public Key Algorithm: id-ecPublicKey
                Public-Key: (256 bit)
                pub: 
                    04:aa:2d:4b:3b:6f:1f:b3:39:64:fe:41:73:56:6f:
                    8c:fb:40:29:20:0d:b1:51:3c:1b:cd:af:50:01:b1:
                    a9:c9:2f:b6:2c:a3:b3:f6:d8:da:6e:4a:37:e9:60:
                    6b:25:1d:49:bf:f1:e8:0b:a4:c1:56:80:ec:b8:55:
                    b6:87:ca:9b:03
                ASN1 OID: prime256v1
        X509v3 extensions:
            X509v3 Basic Constraints: 
                CA:FALSE
            X509v3 Subject Key Identifier: 
                8B:E8:5A:FA:80:34:AF:ED:C3:03:4D:D8:5F:6B:7C:CB:1E:01:C7:69
            X509v3 Authority Key Identifier: 
                keyid:CF:B1:92:EB:0E:B3:8A:DC:0E:E9:55:50:4E:55:AD:A6:45:5C:58:B1

    Signature Algorithm: ecdsa-with-SHA1
         30:46:02:21:00:e8:ee:f1:dd:84:85:9c:18:55:d8:3e:55:f2:
         2c:37:a7:86:a2:03:e6:cb:6d:ac:42:f7:82:0b:43:0d:6f:7e:
         11:02:21:00:92:c5:a3:76:48:99:59:1a:05:c1:a3:92:13:34:
         c7:e8:4d:13:d9:91:f4:fb:fb:a0:6c:00:73:26:45:32:6d:ee
-----BEGIN CERTIFICATE-----
MIIBbzCCARWgAwIBAgIBAjAJBgcqhkjOPQQBMBgxFjAUBgNVBAMTDWVzdEVYVEVS
TkFMQ0EwHhcNMTMwNzAyMTczMjUwWhcNMTQwNzAyMTczMjUwWjAcMRowGAYDVQQD
DBFyZXZva2VkLWNlcnQtdGVzdDBZMBMGByqGSM49AgEGCCqGSM49AwEHA0IABKot
SztvH7M5ZP5Bc1ZvjPtAKSANsVE8G82vUAGxqckvtiyjs/bY2m5KN+lgayUdSb/x
6AukwVaA7LhVtofKmwOjTTBLMAkGA1UdEwQCMAAwHQYDVR0OBBYEFIvoWvqANK/t
wwNN2F9rfMseAcdpMB8GA1UdIwQYMBaAFM+xkusOs4rcDulVUE5VraZFXFixMAkG
ByqGSM49BAEDSQAwRgIhAOju8d2EhZwYVdg+VfIsN6eGogPmy22sQveCC0MNb34R
AiEAksWjdkiZWRoFwaOSEzTH6E0T2ZH0+/ugbABzJkUybe4=
-----END CERTIFICATE-----
