Certificate:
    Data:
        Version: 3 (0x2)
        Serial Number: 953 (0x3b9)
    Signature Algorithm: ecdsa-with-SHA1
        Issuer: CN=estExampleCA
        Validity
            Not Before: Sep 24 18:50:51 2014 GMT
            Not After : Sep  6 18:50:51 2026 GMT
        Subject: CN=127.0.0.1
        Subject Public Key Info:
            Public Key Algorithm: rsaEncryption
                Public-Key: (1024 bit)
                Modulus:
                    00:c4:da:15:9b:0f:cc:b5:5b:88:7d:36:c0:5b:68:
                    82:d0:fc:d4:22:cb:08:a6:36:c4:7b:31:10:d9:b3:
                    d6:60:53:24:5a:9f:0c:65:cc:a8:e4:38:f8:3c:74:
                    81:1b:20:33:f3:a7:f0:1a:8b:3f:26:11:74:5c:9e:
                    15:78:d5:ce:eb:71:f8:1f:3e:4e:17:38:bf:dd:ba:
                    d2:1a:a4:17:2e:ea:54:74:9d:5e:44:b8:2b:50:dc:
                    a4:1a:85:69:b4:44:55:6e:73:85:66:32:70:fd:95:
                    2d:38:44:1e:7f:99:34:0a:96:d9:fd:37:4e:36:5a:
                    e2:ba:58:bf:29:cf:3e:45:01
                Exponent: 65537 (0x10001)
        X509v3 extensions:
            X509v3 Basic Constraints: 
                CA:FALSE
            X509v3 Key Usage: 
                Digital Signature
            X509v3 Extended Key Usage: critical
                TLS Web Server Authentication, TLS Web Client Authentication, 1.3.6.1.5.5.7.3.28
            X509v3 Subject Key Identifier: 
                70:EB:AD:0B:B9:9E:C6:D0:7E:4B:62:95:23:E1:9B:66:9B:A9:25:FA
            X509v3 Authority Key Identifier: 
                keyid:66:E5:56:CA:93:2B:02:0B:57:A4:D4:E2:ED:5F:CA:A4:EE:7D:83:F9

    Signature Algorithm: ecdsa-with-SHA1
         30:46:02:21:00:d9:73:88:17:16:9e:13:ef:69:70:b4:68:73:
         f1:e0:0d:85:f0:56:cb:95:c0:b9:c5:49:7e:cf:c9:a2:24:38:
         f9:02:21:00:ed:8f:b0:82:8b:e5:d4:21:c2:79:e9:bb:7b:52:
         a9:58:ba:07:70:95:e6:43:56:da:03:67:05:5a:bd:03:e2:b2
-----BEGIN CERTIFICATE-----
MIIB6TCCAY+gAwIBAgICA7kwCQYHKoZIzj0EATAXMRUwEwYDVQQDEwxlc3RFeGFt
cGxlQ0EwHhcNMTQwOTI0MTg1MDUxWhcNMjYwOTA2MTg1MDUxWjAUMRIwEAYDVQQD
EwkxMjcuMC4wLjEwgZ8wDQYJKoZIhvcNAQEBBQADgY0AMIGJAoGBAMTaFZsPzLVb
iH02wFtogtD81CLLCKY2xHsxENmz1mBTJFqfDGXMqOQ4+Dx0gRsgM/On8BqLPyYR
dFyeFXjVzutx+B8+Thc4v9260hqkFy7qVHSdXkS4K1DcpBqFabREVW5zhWYycP2V
LThEHn+ZNAqW2f03TjZa4rpYvynPPkUBAgMBAAGjgYcwgYQwCQYDVR0TBAIwADAL
BgNVHQ8EBAMCB4AwKgYDVR0lAQH/BCAwHgYIKwYBBQUHAwEGCCsGAQUFBwMCBggr
BgEFBQcDHDAdBgNVHQ4EFgQUcOutC7mextB+S2KVI+GbZpupJfowHwYDVR0jBBgw
FoAUZuVWypMrAgtXpNTi7V/KpO59g/kwCQYHKoZIzj0EAQNJADBGAiEA2XOIFxae
E+9pcLRoc/HgDYXwVsuVwLnFSX7PyaIkOPkCIQDtj7CCi+XUIcJ56bt7UqlYugdw
leZDVtoDZwVavQPisg==
-----END CERTIFICATE-----
