Certificate:
    Data:
        Version: 3 (0x2)
        Serial Number: 1 (0x1)
    Signature Algorithm: ecdsa-with-SHA256
        Issuer: CN=estExampleSUDICA
        Validity
            Not Before: Apr 22 18:04:06 2019 GMT
            Not After : Apr  4 18:04:06 2031 GMT
        Subject: CN=estExampleSUDICA1-0
        Subject Public Key Info:
            Public Key Algorithm: id-ecPublicKey
                Public-Key: (256 bit)
                pub: 
                    04:9d:f3:23:33:96:08:e1:ef:7d:f9:c6:cd:b3:69:
                    e5:0a:49:03:76:87:ae:04:60:8a:c7:ac:15:1a:cf:
                    a1:17:ec:97:3e:d3:ad:63:49:90:ff:23:6e:d5:04:
                    17:3b:b0:28:4e:47:c0:5c:bc:44:8e:25:e7:cc:d5:
                    f9:93:93:3d:13
                ASN1 OID: prime256v1
                NIST CURVE: P-256
        X509v3 extensions:
            X509v3 Basic Constraints: 
                CA:TRUE
            X509v3 Key Usage: 
                Certificate Sign
            X509v3 CRL Distribution Points: 

                Full Name:
                  URI:http://example.com/crl.pem

            X509v3 Subject Key Identifier: 
                AE:0B:A8:0D:11:1C:2F:FE:E3:E8:96:56:98:FA:6A:58:73:F1:AC:25
            X509v3 Authority Key Identifier: 
                keyid:E1:4C:13:37:83:5F:C2:F4:6E:15:8E:7F:56:8E:67:14:29:F5:26:CF

    Signature Algorithm: ecdsa-with-SHA256
         30:44:02:20:5c:d8:87:57:7c:56:4d:43:87:f7:d3:6a:21:a2:
         0d:af:89:bd:f9:89:e8:38:7e:e4:b6:05:e1:93:df:d6:13:3c:
         02:20:2b:57:2f:49:cd:9f:05:0f:f6:62:dd:a0:af:17:12:0d:
         d9:4d:aa:bd:84:42:ac:04:d0:45:ec:a7:8f:01:83:cf
-----BEGIN CERTIFICATE-----
MIIBszCCAVqgAwIBAgIBATAKBggqhkjOPQQDAjAbMRkwFwYDVQQDDBBlc3RFeGFt
cGxlU1VESUNBMB4XDTE5MDQyMjE4MDQwNloXDTMxMDQwNDE4MDQwNlowHjEcMBoG
A1UEAwwTZXN0RXhhbXBsZVNVRElDQTEtMDBZMBMGByqGSM49AgEGCCqGSM49AwEH
A0IABJ3zIzOWCOHvffnGzbNp5QpJA3aHrgRgisesFRrPoRfslz7TrWNJkP8jbtUE
FzuwKE5HwFy8RI4l58zV+ZOTPROjgYswgYgwDAYDVR0TBAUwAwEB/zALBgNVHQ8E
BAMCAgQwKwYDVR0fBCQwIjAgoB6gHIYaaHR0cDovL2V4YW1wbGUuY29tL2NybC5w
ZW0wHQYDVR0OBBYEFK4LqA0RHC/+4+iWVpj6alhz8awlMB8GA1UdIwQYMBaAFOFM
EzeDX8L0bhWOf1aOZxQp9SbPMAoGCCqGSM49BAMCA0cAMEQCIFzYh1d8Vk1Dh/fT
aiGiDa+JvfmJ6Dh+5LYF4ZPf1hM8AiArVy9JzZ8FD/Zi3aCvFxIN2U2qvYRCrATQ
ReynjwGDzw==
-----END CERTIFICATE-----
