Certificate:
    Data:
        Version: 3 (0x2)
        Serial Number: 2 (0x2)
    Signature Algorithm: ecdsa-with-SHA256
        Issuer: CN=estExampleSUDICA1-0
        Validity
            Not Before: Apr 22 18:04:06 2019 GMT
            Not After : Apr  4 18:04:06 2031 GMT
        Subject: CN=estExampleSUDICA1-1
        Subject Public Key Info:
            Public Key Algorithm: id-ecPublicKey
                Public-Key: (256 bit)
                pub: 
                    04:05:25:21:21:2f:7e:c5:e5:4b:aa:c2:98:52:63:
                    db:8e:0c:7a:9b:49:ad:f4:b8:72:6b:12:3b:84:3b:
                    90:3f:56:c3:3a:4c:02:3f:5a:50:a6:b2:3d:89:fc:
                    67:66:65:b5:e4:78:fd:19:f4:cb:26:38:52:3b:22:
                    36:18:b6:80:37
                ASN1 OID: prime256v1
                NIST CURVE: P-256
        X509v3 extensions:
            X509v3 Basic Constraints: 
                CA:TRUE
            X509v3 Key Usage: 
                Certificate Sign
            X509v3 CRL Distribution Points: 

                Full Name:
                  URI:http://example.com/crl.pem

            X509v3 Subject Key Identifier: 
                26:09:FD:F1:42:5F:38:26:8A:4B:8B:87:26:89:56:8B:1D:13:EB:CB
            X509v3 Authority Key Identifier: 
                keyid:AE:0B:A8:0D:11:1C:2F:FE:E3:E8:96:56:98:FA:6A:58:73:F1:AC:25

    Signature Algorithm: ecdsa-with-SHA256
         30:44:02:20:25:18:5a:43:28:0d:a7:16:ff:65:69:82:a4:21:
         2b:b9:e2:39:88:4a:98:83:d1:92:58:a7:f2:f5:4e:cc:c8:d0:
         02:20:4a:2a:60:66:0b:f3:f5:91:0e:9c:b0:55:19:fa:f7:86:
         a8:19:24:44:ea:72:3a:48:d4:b8:fa:c1:c9:f8:b8:16
-----BEGIN CERTIFICATE-----
MIIBtjCCAV2gAwIBAgIBAjAKBggqhkjOPQQDAjAeMRwwGgYDVQQDDBNlc3RFeGFt
cGxlU1VESUNBMS0wMB4XDTE5MDQyMjE4MDQwNloXDTMxMDQwNDE4MDQwNlowHjEc
MBoGA1UEAwwTZXN0RXhhbXBsZVNVRElDQTEtMTBZMBMGByqGSM49AgEGCCqGSM49
AwEHA0IABAUlISEvfsXlS6rCmFJj244MeptJrfS4cmsSO4Q7kD9WwzpMAj9aUKay
PYn8Z2ZlteR4/Rn0yyY4UjsiNhi2gDejgYswgYgwDAYDVR0TBAUwAwEB/zALBgNV
HQ8EBAMCAgQwKwYDVR0fBCQwIjAgoB6gHIYaaHR0cDovL2V4YW1wbGUuY29tL2Ny
bC5wZW0wHQYDVR0OBBYEFCYJ/fFCXzgmikuLhyaJVosdE+vLMB8GA1UdIwQYMBaA
FK4LqA0RHC/+4+iWVpj6alhz8awlMAoGCCqGSM49BAMCA0cAMEQCICUYWkMoDacW
/2VpgqQhK7niOYhKmIPRklin8vVOzMjQAiBKKmBmC/P1kQ6csFUZ+veGqBkkROpy
OkjUuPrByfi4Fg==
-----END CERTIFICATE-----
