Certificate:
    Data:
        Version: 3 (0x2)
        Serial Number: 3 (0x3)
    Signature Algorithm: ecdsa-with-SHA256
        Issuer: CN=estExampleSUDICA1-1
        Validity
            Not Before: Apr 22 18:04:06 2019 GMT
            Not After : Apr  4 18:04:06 2031 GMT
        Subject: CN=127.0.0.1
        Subject Public Key Info:
            Public Key Algorithm: id-ecPublicKey
                Public-Key: (256 bit)
                pub: 
                    04:f7:98:e6:7f:83:32:58:68:e4:fc:c4:53:dd:4a:
                    a4:6c:54:c0:9d:93:67:b9:4e:86:50:e4:eb:7b:67:
                    35:ed:9b:15:6d:f0:8a:fd:6a:14:06:42:fb:6e:53:
                    a5:74:83:8c:c5:d8:0c:40:e3:a2:2e:60:62:82:28:
                    6e:f5:04:d5:22
                ASN1 OID: prime256v1
                NIST CURVE: P-256
        X509v3 extensions:
            X509v3 Basic Constraints: 
                CA:FALSE
            X509v3 Key Usage: 
                Digital Signature, Non Repudiation, Key Encipherment
            X509v3 Subject Alternative Name: 
                DNS:localhost, DNS:ip6-localhost, IP Address:127.0.0.1, IP Address:0:0:0:0:0:0:0:1
            X509v3 CRL Distribution Points: 

                Full Name:
                  URI:http://example.com/crl.pem

    Signature Algorithm: ecdsa-with-SHA256
         30:46:02:21:00:b8:6e:e5:ba:12:d1:f4:97:1d:04:e2:07:48:
         80:35:20:1f:87:df:59:d9:fa:90:e2:4d:0a:58:86:ad:ad:d3:
         bd:02:21:00:9c:63:09:07:25:5b:d6:76:59:98:32:36:e2:5b:
         58:98:0f:53:c8:7c:e6:d6:52:9b:7d:c4:e4:a7:09:77:61:fb
-----BEGIN CERTIFICATE-----
MIIBqDCCAU2gAwIBAgIBAzAKBggqhkjOPQQDAjAeMRwwGgYDVQQDDBNlc3RFeGFt
cGxlU1VESUNBMS0xMB4XDTE5MDQyMjE4MDQwNloXDTMxMDQwNDE4MDQwNlowFDES
MBAGA1UEAwwJMTI3LjAuMC4xMFkwEwYHKoZIzj0CAQYIKoZIzj0DAQcDQgAE95jm
f4MyWGjk/MRT3UqkbFTAnZNnuU6GUOTre2c17ZsVbfCK/WoUBkL7blOldIOMxdgM
QOOiLmBigihu9QTVIqOBhTCBgjAJBgNVHRMEAjAAMAsGA1UdDwQEAwIF4DA7BgNV
HREENDAygglsb2NhbGhvc3SCDWlwNi1sb2NhbGhvc3SHBH8AAAGHEAAAAAAAAAAA
AAAAAAAAAAEwKwYDVR0fBCQwIjAgoB6gHIYaaHR0cDovL2V4YW1wbGUuY29tL2Ny
bC5wZW0wCgYIKoZIzj0EAwIDSQAwRgIhALhu5boS0fSXHQTiB0iANSAfh99Z2fqQ
4k0KWIatrdO9AiEAnGMJByVb1nZZmDI24ltYmA9TyHzm1lKbfcTkpwl3Yfs=
-----END CERTIFICATE-----
