Certificate:
    Data:
        Version: 3 (0x2)
        Serial Number: 4 (0x4)
    Signature Algorithm: ecdsa-with-SHA256
        Issuer: CN=estExampleSUDICA
        Validity
            Not Before: Apr 22 18:04:07 2019 GMT
            Not After : Apr  4 18:04:07 2031 GMT
        Subject: CN=estExampleHugeSUDICA.verylongwow.cisco123.404neverexisted.zw2-0
        Subject Public Key Info:
            Public Key Algorithm: rsaEncryption
                Public-Key: (4096 bit)
                Modulus:
                    00:cd:1a:2f:53:e7:b1:1c:30:80:8b:3a:77:88:05:
                    a5:b1:a5:8a:ff:0f:be:e8:87:33:94:72:c1:34:ad:
                    fd:54:2a:7c:67:c9:d6:ea:4a:c1:d0:b5:3c:84:14:
                    0a:43:b3:47:94:cc:bc:6c:46:ef:70:c8:03:ad:df:
                    f5:1a:b3:f2:d7:68:6c:5b:5e:c1:4f:37:6b:db:59:
                    17:4d:28:5c:be:e2:70:fd:79:53:b4:fc:1d:25:8d:
                    9e:9f:f2:4f:f9:92:34:06:82:b6:73:01:88:6a:9a:
                    11:ff:5a:64:84:6a:67:f1:b0:f0:b2:88:a4:fd:53:
                    d7:fb:d9:fb:a9:c1:a8:b7:c8:86:64:86:0c:dc:b6:
                    c9:42:3a:31:53:8e:ca:f6:58:e4:a5:86:ef:1b:08:
                    10:ee:92:fc:ca:53:19:46:36:f3:97:a0:91:12:2e:
                    05:3c:cc:d2:3b:0c:3d:6f:b2:54:cc:e4:53:8f:da:
                    50:4c:49:f0:0d:0e:ee:d8:96:94:ee:8c:e3:75:7a:
                    dd:3c:f9:7d:11:37:5a:a5:a7:e2:4b:88:14:c9:72:
                    5f:93:a5:e1:36:95:e4:a1:a9:99:23:99:d8:52:11:
                    34:d4:00:05:29:b1:20:ba:50:f6:3e:e2:f8:71:e6:
                    a2:79:7f:dc:a2:43:9f:8b:30:01:2b:f3:3b:4f:f2:
                    04:58:9c:d7:79:dd:b5:a5:2c:24:02:9f:5b:ed:35:
                    b5:1f:20:0f:80:b0:9a:a1:92:40:c7:8c:5e:60:14:
                    e0:d1:87:25:83:af:2a:f5:6f:d3:68:d7:e8:ec:c7:
                    0a:63:da:68:33:4e:35:7f:d8:d7:15:ef:b0:d7:3e:
                    6a:27:3a:92:a8:a4:1a:64:ce:c7:53:ce:98:1c:34:
                    e3:b4:f5:b9:6a:c8:0a:a1:66:27:30:7a:8b:3b:31:
                    e5:88:98:ff:ca:69:a7:b9:45:d2:2e:86:02:7a:0a:
                    6a:19:90:76:2c:9e:9f:ee:73:32:2f:5f:d1:03:20:
                    82:34:b0:89:87:bf:5f:b8:02:3e:3f:82:e1:34:a4:
                    88:f3:2a:b0:70:9e:3c:64:85:33:04:64:f6:e5:9a:
                    17:84:b0:bc:d4:ea:e1:f2:de:57:d0:87:7e:3b:2b:
                    2d:a2:a6:34:04:21:e4:af:79:f3:3b:a5:8c:6f:19:
                    59:74:2b:ac:34:66:4c:f6:55:c6:3a:ce:c9:a8:1a:
                    85:10:79:47:72:8c:66:f5:16:21:dd:97:bc:55:b2:
                    6a:3b:f2:62:e9:72:0c:fc:47:46:34:2d:e1:17:a1:
                    20:8e:7a:1d:d3:54:0a:9a:74:1c:d5:66:e4:ae:18:
                    18:3d:ab:0f:e7:93:9e:f3:f8:3b:a5:ac:29:d9:b1:
                    87:24:d3
                Exponent: 65537 (0x10001)
        X509v3 extensions:
            X509v3 Basic Constraints: 
                CA:TRUE
            X509v3 Key Usage: 
                Certificate Sign
            X509v3 CRL Distribution Points: 

                Full Name:
                  URI:http://example.com/crl.pem

            X509v3 Subject Key Identifier: 
                38:80:E4:24:3D:D6:A1:FB:C2:98:70:2D:2A:50:CA:7B:40:1D:36:51
            X509v3 Authority Key Identifier: 
                keyid:E1:4C:13:37:83:5F:C2:F4:6E:15:8E:7F:56:8E:67:14:29:F5:26:CF

            X509v3 Subject Alternative Name: 
                DNS:yourserverscanthandlecertsofthismagnitude.trap.zw, DNS:whoputthefreakinfrenchfries.404nofreakinfrenchfries.zw, DNS:aintnopacketbigenough.aintnopinglowenought.aintnocertificatehugeenough.zw, DNS:youputthecertinthefiledescriptor.shakedtlsallup.zw, DNS:spidermanspidermandoeswhateveraspidercan.spinsawebanysizecatchesthievesjustlikeflies.spinsawebanysizecatchesthievesjustlikeflies.zw, DNS:itsame-mario-hello-letsago-nightynighty-ahspaghetti-ahravioli-ahhmamamia.herewego.wha-haha-ya-whaa-hoohooooo-whoaaa-yeeuuh-yippeee-solongehbowser-pressstarttoplay-gameover.zw, DNS:thelittlecertthatcould.byrygranger.thereoncewasacertthatdreamedthathecouldbreaktheserver-hekeptgettinglargertitlesuntilonedayhedid.zw
    Signature Algorithm: ecdsa-with-SHA256
         30:44:02:20:02:2a:17:c1:c7:f6:1d:c2:8c:72:86:4c:5a:45:
         ab:b7:a9:51:cc:dc:88:79:0b:1d:9f:4c:e7:d5:9e:47:4a:36:
         02:20:32:41:d5:91:60:88:96:ad:cb:a0:ed:2f:e9:d0:33:e5:
         78:25:5a:e7:25:fb:af:02:3b:a4:78:a9:5d:71:d8:8c
-----BEGIN CERTIFICATE-----
MIIGZjCCBg2gAwIBAgIBBDAKBggqhkjOPQQDAjAbMRkwFwYDVQQDDBBlc3RFeGFt
cGxlU1VESUNBMB4XDTE5MDQyMjE4MDQwN1oXDTMxMDQwNDE4MDQwN1owSjFIMEYG
A1UEAww/ZXN0RXhhbXBsZUh1Z2VTVURJQ0EudmVyeWxvbmd3b3cuY2lzY28xMjMu
NDA0bmV2ZXJleGlzdGVkLnp3Mi0wMIICIjANBgkqhkiG9w0BAQEFAAOCAg8AMIIC
CgKCAgEAzRovU+exHDCAizp3iAWlsaWK/w++6IczlHLBNK39VCp8Z8nW6krB0LU8
hBQKQ7NHlMy8bEbvcMgDrd/1GrPy12hsW17BTzdr21kXTShcvuJw/XlTtPwdJY2e
n/JP+ZI0BoK2cwGIapoR/1pkhGpn8bDwsoik/VPX+9n7qcGot8iGZIYM3LbJQjox
U47K9ljkpYbvGwgQ7pL8ylMZRjbzl6CREi4FPMzSOww9b7JUzORTj9pQTEnwDQ7u
2JaU7ozjdXrdPPl9ETdapafiS4gUyXJfk6XhNpXkoamZI5nYUhE01AAFKbEgulD2
PuL4ceaieX/cokOfizABK/M7T/IEWJzXed21pSwkAp9b7TW1HyAPgLCaoZJAx4xe
YBTg0Yclg68q9W/TaNfo7McKY9poM041f9jXFe+w1z5qJzqSqKQaZM7HU86YHDTj
tPW5asgKoWYnMHqLOzHliJj/ymmnuUXSLoYCegpqGZB2LJ6f7nMyL1/RAyCCNLCJ
h79fuAI+P4LhNKSI8yqwcJ48ZIUzBGT25ZoXhLC81Orh8t5X0Id+OystoqY0BCHk
r3nzO6WMbxlZdCusNGZM9lXGOs7JqBqFEHlHcoxm9RYh3Ze8VbJqO/Ji6XIM/EdG
NC3hF6Egjnod01QKmnQc1WbkrhgYPasP55Oe8/g7pawp2bGHJNMCAwEAAaOCA0Yw
ggNCMAwGA1UdEwQFMAMBAf8wCwYDVR0PBAQDAgIEMCsGA1UdHwQkMCIwIKAeoByG
Gmh0dHA6Ly9leGFtcGxlLmNvbS9jcmwucGVtMB0GA1UdDgQWBBQ4gOQkPdah+8KY
cC0qUMp7QB02UTAfBgNVHSMEGDAWgBThTBM3g1/C9G4Vjn9WjmcUKfUmzzCCArYG
A1UdEQSCAq0wggKpgjF5b3Vyc2VydmVyc2NhbnRoYW5kbGVjZXJ0c29mdGhpc21h
Z25pdHVkZS50cmFwLnp3gjZ3aG9wdXR0aGVmcmVha2luZnJlbmNoZnJpZXMuNDA0
bm9mcmVha2luZnJlbmNoZnJpZXMueneCSWFpbnRub3BhY2tldGJpZ2Vub3VnaC5h
aW50bm9waW5nbG93ZW5vdWdodC5haW50bm9jZXJ0aWZpY2F0ZWh1Z2Vlbm91Z2gu
eneCMnlvdXB1dHRoZWNlcnRpbnRoZWZpbGVkZXNjcmlwdG9yLnNoYWtlZHRsc2Fs
bHVwLnp3goGDc3BpZGVybWFuc3BpZGVybWFuZG9lc3doYXRldmVyYXNwaWRlcmNh
bi5zcGluc2F3ZWJhbnlzaXplY2F0Y2hlc3RoaWV2ZXNqdXN0bGlrZWZsaWVzLnNw
aW5zYXdlYmFueXNpemVjYXRjaGVzdGhpZXZlc2p1c3RsaWtlZmxpZXMueneCga5p
dHNhbWUtbWFyaW8taGVsbG8tbGV0c2Fnby1uaWdodHluaWdodHktYWhzcGFnaGV0
dGktYWhyYXZpb2xpLWFoaG1hbWFtaWEuaGVyZXdlZ28ud2hhLWhhaGEteWEtd2hh
YS1ob29ob29vb28td2hvYWFhLXllZXV1aC15aXBwZWVlLXNvbG9uZ2VoYm93c2Vy
LXByZXNzc3RhcnR0b3BsYXktZ2FtZW92ZXIueneCgYV0aGVsaXR0bGVjZXJ0dGhh
dGNvdWxkLmJ5cnlncmFuZ2VyLnRoZXJlb25jZXdhc2FjZXJ0dGhhdGRyZWFtZWR0
aGF0aGVjb3VsZGJyZWFrdGhlc2VydmVyLWhla2VwdGdldHRpbmdsYXJnZXJ0aXRs
ZXN1bnRpbG9uZWRheWhlZGlkLnp3MAoGCCqGSM49BAMCA0cAMEQCIAIqF8HH9h3C
jHKGTFpFq7epUczciHkLHZ9M59WeR0o2AiAyQdWRYIiWrcug7S/p0DPleCVa5yX7
rwI7pHipXXHYjA==
-----END CERTIFICATE-----
