Certificate:
    Data:
        Version: 3 (0x2)
        Serial Number: 5 (0x5)
    Signature Algorithm: sha256WithRSAEncryption
        Issuer: CN=estExampleHugeSUDICA.verylongwow.cisco123.404neverexisted.zw2-0
        Validity
            Not Before: Apr 22 18:04:08 2019 GMT
            Not After : Apr  4 18:04:08 2031 GMT
        Subject: CN=estExampleHugeSUDICA.verylongwow.cisco123.404neverexisted.zw2-1
        Subject Public Key Info:
            Public Key Algorithm: rsaEncryption
                Public-Key: (4096 bit)
                Modulus:
                    00:bc:78:92:38:34:90:df:7d:f6:e5:f4:e7:93:ac:
                    d4:68:6b:b5:ba:6b:c2:7b:33:f7:13:f5:1d:5a:66:
                    4c:65:4c:3e:cb:21:2e:f2:e9:92:6e:49:a0:15:92:
                    16:f5:a7:fd:38:a1:22:51:a9:f1:99:99:e4:0c:84:
                    28:14:9d:92:18:1d:a5:f7:6e:94:67:80:88:ce:ca:
                    a6:63:1a:76:a1:f9:7e:5f:d3:e3:b3:6a:ec:ae:e4:
                    a2:11:d6:d9:5c:ba:96:69:4d:97:9e:5c:69:4d:f5:
                    f1:b5:80:b9:27:f1:7b:a1:81:74:f5:81:63:33:31:
                    42:03:e0:73:c9:e3:c5:4d:5e:b6:49:77:dc:16:04:
                    ce:de:f1:3b:3b:48:66:c0:85:4a:76:72:20:0b:60:
                    08:78:bd:7e:30:96:da:aa:a8:dc:a9:c3:7b:59:ea:
                    d9:f0:4b:fd:55:d1:a4:9e:93:8f:a1:cb:19:38:13:
                    6b:15:6f:20:05:d8:39:52:3b:af:5f:11:08:b5:cc:
                    97:3e:7e:39:6e:da:89:7e:95:22:32:5c:3e:3f:21:
                    b1:97:66:39:70:4a:c8:95:5e:0d:bd:4c:65:29:f3:
                    b6:c4:ef:9f:94:01:15:5b:6b:8f:f7:18:28:a0:4b:
                    6e:27:f7:9a:54:d8:2e:ff:5c:9a:76:09:7a:c1:c5:
                    cc:37:e1:30:c1:fe:bc:77:fa:6a:f3:2f:36:75:9a:
                    e1:4f:38:df:5a:84:91:a4:cb:95:00:61:bb:b0:85:
                    85:b6:1c:0c:3c:27:cf:10:f8:be:ec:7c:75:27:59:
                    1d:4c:3b:4f:9b:f4:54:1e:c2:a8:3b:8e:22:e3:ff:
                    eb:c9:52:d7:ec:3f:63:54:29:38:7a:e3:87:2b:c4:
                    78:a7:4c:75:49:1f:f3:1c:10:81:59:83:dd:bd:b5:
                    9b:4e:56:5c:5f:69:e9:91:3c:e3:30:e6:86:9a:1c:
                    07:e1:46:bc:70:2e:52:1e:13:f3:c1:7f:31:76:db:
                    da:4b:ce:fd:09:75:7e:b1:b7:1c:b9:dc:33:30:48:
                    86:5b:ec:aa:ad:a2:29:67:89:1a:52:dc:88:8f:06:
                    e1:cc:bc:1d:3b:5a:7a:c5:b4:e7:5d:6f:8d:b7:5f:
                    41:0d:f0:83:26:3d:48:89:52:77:fb:72:ec:8f:1c:
                    67:34:88:3b:a0:ea:b5:a2:61:1f:ee:11:6c:de:09:
                    1d:c8:8d:ef:f8:b6:c9:74:fd:1c:3a:94:92:5a:6a:
                    47:62:5e:6b:19:ab:01:de:b2:a8:28:dd:a6:a7:da:
                    7d:6f:e0:41:40:d0:3b:91:d8:44:34:16:64:ff:16:
                    08:99:42:97:b6:e5:12:83:14:4c:b5:4a:4f:3f:1f:
                    cc:ae:c9
                Exponent: 65537 (0x10001)
        X509v3 extensions:
            X509v3 Basic Constraints: 
                CA:TRUE
            X509v3 Key Usage: 
                Certificate Sign
            X509v3 CRL Distribution Points: 

                Full Name:
                  URI:http://example.com/crl.pem

            X509v3 Subject Key Identifier: 
                92:30:75:13:F7:1B:72:36:55:6E:A8:37:E1:36:D0:08:96:01:BA:22
            X509v3 Authority Key Identifier: 
                keyid:38:80:E4:24:3D:D6:A1:FB:C2:98:70:2D:2A:50:CA:7B:40:1D:36:51

            X509v3 Subject Alternative Name: 
                DNS:yourserverscanthandlecertsofthismagnitude.trap2-0.zw, DNS:whoputthefreakinfrenchfries.404nofreakinfrenchfries2-0.zw, DNS:aintnopacketbigenough.aintnopinglowenought.aintnocertificatehugeenough2-0.zw, DNS:youputthecertinthefiledescriptor.shakedtlsallup2-0.zw, DNS:spidermanspidermandoeswhateveraspidercan.spinsawebanysizecatchesthievesjustlikeflies.spinsawebanysizecatchesthievesjustlikeflies2-0.zw, DNS:itsame-mario-hello-letsago-nightynighty-ahspaghetti-ahravioli-ahhmamamia.herewego.wha-haha-ya-whaa-hoohooooo-whoaaa-yeeuuh-yippeee-solongehbowser-pressstarttoplay-gameover2-0.zw, DNS:thelittlecertthatcould.byrygranger.thereoncewasacertthatdreamedthathecouldbreaktheserver-hekeptgettinglargertitlesuntilonedayhedid2-0.zw
    Signature Algorithm: sha256WithRSAEncryption
         88:4e:a0:4e:83:94:44:74:f5:10:b7:3e:59:6a:27:a8:df:a9:
         67:d4:21:39:f5:13:3e:f7:7b:32:f4:ef:1f:34:12:d5:7c:1d:
         2f:a5:8c:8d:8c:2a:f8:b2:da:75:be:88:5d:76:b4:88:35:0f:
         98:2e:60:8b:6e:72:36:95:ab:4f:fe:87:ab:1c:77:69:cc:52:
         0d:dc:1a:d5:ec:ab:7e:01:9f:3b:55:3b:09:91:46:c2:d2:cb:
         94:c4:f3:8d:7a:be:06:3f:28:a1:5a:1e:8a:a3:82:3b:a4:cd:
         42:8c:f2:be:bc:96:40:36:78:4d:c9:85:b1:f9:3a:47:9c:65:
         c0:8f:74:41:2a:3d:d8:f6:8a:32:04:4e:4b:52:47:ce:77:a0:
         ea:82:86:48:ef:b6:47:c1:d8:78:b1:d8:81:59:66:a6:6a:e5:
         44:59:d1:2d:7b:74:38:1b:6b:8b:0a:03:fb:29:4f:ac:d2:97:
         8b:8d:53:cb:38:be:6e:f2:44:bf:4c:03:70:58:a6:bd:57:30:
         fc:31:2d:d8:5c:0b:8b:8f:43:32:7d:5c:5b:2e:6c:1b:79:33:
         51:3f:be:95:f1:3b:8b:66:e0:c1:ec:13:4f:a0:f7:23:55:6a:
         a0:38:94:96:fd:d8:f6:30:8e:25:c6:0f:7b:02:e7:aa:fd:00:
         53:4e:36:c0:46:ca:5c:28:b0:d9:f2:4a:93:ae:0e:ef:7e:77:
         b7:96:68:5b:d8:fc:6a:0a:70:8d:0a:07:ef:eb:b5:39:e5:aa:
         70:1c:21:0c:78:a5:cc:a7:23:0e:25:36:e4:e5:e4:b9:2b:9c:
         34:04:08:54:98:aa:c6:10:a7:8e:a6:a2:6d:68:0e:00:fc:fe:
         a1:20:69:20:e7:87:27:4c:ba:6e:57:17:ef:15:b7:b3:c6:c5:
         a5:cd:71:b7:38:44:3c:21:7e:ad:00:47:fa:52:18:d8:a5:ea:
         fc:69:b6:6c:0f:82:f4:f3:c5:12:cc:2e:8a:00:76:69:2f:2a:
         7a:af:fc:bc:42:12:9b:54:84:9c:a3:aa:18:d2:f2:29:71:bc:
         ad:37:5c:01:90:33:cd:e0:9b:d0:e9:ad:bc:02:94:cb:3f:d3:
         59:7c:fd:41:47:2e:33:ea:a7:74:bd:53:34:45:c0:32:d5:88:
         3f:1e:7f:7c:1f:20:46:b3:48:8d:11:b4:5b:23:02:9f:4c:78:
         29:ab:fa:5f:48:07:0b:b1:57:e8:63:c3:22:a7:10:9a:d6:fc:
         27:34:67:a3:f7:08:6d:19:78:ad:13:a8:c7:7f:e1:15:23:a3:
         13:a8:6c:33:fb:7b:5c:05:32:35:d0:a9:fe:4c:50:af:53:ad:
         e3:31:39:82:81:7b:3b:58
-----BEGIN CERTIFICATE-----
MIIIbDCCBlSgAwIBAgIBBTANBgkqhkiG9w0BAQsFADBKMUgwRgYDVQQDDD9lc3RF
eGFtcGxlSHVnZVNVRElDQS52ZXJ5bG9uZ3dvdy5jaXNjbzEyMy40MDRuZXZlcmV4
aXN0ZWQuencyLTAwHhcNMTkwNDIyMTgwNDA4WhcNMzEwNDA0MTgwNDA4WjBKMUgw
RgYDVQQDDD9lc3RFeGFtcGxlSHVnZVNVRElDQS52ZXJ5bG9uZ3dvdy5jaXNjbzEy
My40MDRuZXZlcmV4aXN0ZWQuencyLTEwggIiMA0GCSqGSIb3DQEBAQUAA4ICDwAw
ggIKAoICAQC8eJI4NJDfffbl9OeTrNRoa7W6a8J7M/cT9R1aZkxlTD7LIS7y6ZJu
SaAVkhb1p/04oSJRqfGZmeQMhCgUnZIYHaX3bpRngIjOyqZjGnah+X5f0+Ozauyu
5KIR1tlcupZpTZeeXGlN9fG1gLkn8XuhgXT1gWMzMUID4HPJ48VNXrZJd9wWBM7e
8Ts7SGbAhUp2ciALYAh4vX4wltqqqNypw3tZ6tnwS/1V0aSek4+hyxk4E2sVbyAF
2DlSO69fEQi1zJc+fjlu2ol+lSIyXD4/IbGXZjlwSsiVXg29TGUp87bE75+UARVb
a4/3GCigS24n95pU2C7/XJp2CXrBxcw34TDB/rx3+mrzLzZ1muFPON9ahJGky5UA
YbuwhYW2HAw8J88Q+L7sfHUnWR1MO0+b9FQewqg7jiLj/+vJUtfsP2NUKTh644cr
xHinTHVJH/McEIFZg929tZtOVlxfaemRPOMw5oaaHAfhRrxwLlIeE/PBfzF229pL
zv0JdX6xtxy53DMwSIZb7KqtoilniRpS3IiPBuHMvB07WnrFtOddb423X0EN8IMm
PUiJUnf7cuyPHGc0iDug6rWiYR/uEWzeCR3Ije/4tsl0/Rw6lJJaakdiXmsZqwHe
sqgo3aan2n1v4EFA0DuR2EQ0FmT/FgiZQpe25RKDFEy1Sk8/H8yuyQIDAQABo4ID
WzCCA1cwDAYDVR0TBAUwAwEB/zALBgNVHQ8EBAMCAgQwKwYDVR0fBCQwIjAgoB6g
HIYaaHR0cDovL2V4YW1wbGUuY29tL2NybC5wZW0wHQYDVR0OBBYEFJIwdRP3G3I2
VW6oN+E20AiWAboiMB8GA1UdIwQYMBaAFDiA5CQ91qH7wphwLSpQyntAHTZRMIIC
ywYDVR0RBIICwjCCAr6CNHlvdXJzZXJ2ZXJzY2FudGhhbmRsZWNlcnRzb2Z0aGlz
bWFnbml0dWRlLnRyYXAyLTAueneCOXdob3B1dHRoZWZyZWFraW5mcmVuY2hmcmll
cy40MDRub2ZyZWFraW5mcmVuY2hmcmllczItMC56d4JMYWludG5vcGFja2V0Ymln
ZW5vdWdoLmFpbnRub3Bpbmdsb3dlbm91Z2h0LmFpbnRub2NlcnRpZmljYXRlaHVn
ZWVub3VnaDItMC56d4I1eW91cHV0dGhlY2VydGludGhlZmlsZWRlc2NyaXB0b3Iu
c2hha2VkdGxzYWxsdXAyLTAueneCgYZzcGlkZXJtYW5zcGlkZXJtYW5kb2Vzd2hh
dGV2ZXJhc3BpZGVyY2FuLnNwaW5zYXdlYmFueXNpemVjYXRjaGVzdGhpZXZlc2p1
c3RsaWtlZmxpZXMuc3BpbnNhd2ViYW55c2l6ZWNhdGNoZXN0aGlldmVzanVzdGxp
a2VmbGllczItMC56d4KBsWl0c2FtZS1tYXJpby1oZWxsby1sZXRzYWdvLW5pZ2h0
eW5pZ2h0eS1haHNwYWdoZXR0aS1haHJhdmlvbGktYWhobWFtYW1pYS5oZXJld2Vn
by53aGEtaGFoYS15YS13aGFhLWhvb2hvb29vby13aG9hYWEteWVldXVoLXlpcHBl
ZWUtc29sb25nZWhib3dzZXItcHJlc3NzdGFydHRvcGxheS1nYW1lb3ZlcjItMC56
d4KBiHRoZWxpdHRsZWNlcnR0aGF0Y291bGQuYnlyeWdyYW5nZXIudGhlcmVvbmNl
d2FzYWNlcnR0aGF0ZHJlYW1lZHRoYXRoZWNvdWxkYnJlYWt0aGVzZXJ2ZXItaGVr
ZXB0Z2V0dGluZ2xhcmdlcnRpdGxlc3VudGlsb25lZGF5aGVkaWQyLTAuencwDQYJ
KoZIhvcNAQELBQADggIBAIhOoE6DlER09RC3PllqJ6jfqWfUITn1Ez73ezL07x80
EtV8HS+ljI2MKviy2nW+iF12tIg1D5guYItucjaVq0/+h6scd2nMUg3cGtXsq34B
nztVOwmRRsLSy5TE8416vgY/KKFaHoqjgjukzUKM8r68lkA2eE3JhbH5OkecZcCP
dEEqPdj2ijIETktSR853oOqChkjvtkfB2Hix2IFZZqZq5URZ0S17dDgba4sKA/sp
T6zSl4uNU8s4vm7yRL9MA3BYpr1XMPwxLdhcC4uPQzJ9XFsubBt5M1E/vpXxO4tm
4MHsE0+g9yNVaqA4lJb92PYwjiXGD3sC56r9AFNONsBGylwosNnySpOuDu9+d7eW
aFvY/GoKcI0KB+/rtTnlqnAcIQx4pcynIw4lNuTl5LkrnDQECFSYqsYQp46mom1o
DgD8/qEgaSDnhydMum5XF+8Vt7PGxaXNcbc4RDwhfq0AR/pSGNil6vxptmwPgvTz
xRLMLooAdmkvKnqv/LxCEptUhJyjqhjS8ilxvK03XAGQM83gm9DprbwClMs/01l8
/UFHLjPqp3S9UzRFwDLViD8ef3wfIEazSI0RtFsjAp9MeCmr+l9IBwuxV+hjwyKn
EJrW/Cc0Z6P3CG0ZeK0TqMd/4RUjoxOobDP7e1wFMjXQqf5MUK9TreMxOYKBeztY
-----END CERTIFICATE-----
