Certificate:
    Data:
        Version: 3 (0x2)
        Serial Number: 6 (0x6)
    Signature Algorithm: sha256WithRSAEncryption
        Issuer: CN=estExampleHugeSUDICA.verylongwow.cisco123.404neverexisted.zw2-1
        Validity
            Not Before: Apr 22 18:04:08 2019 GMT
            Not After : Apr  4 18:04:08 2031 GMT
        Subject: CN=estExampleHugeSUDICA.verylongwow.cisco123.404neverexisted.zw2-2
        Subject Public Key Info:
            Public Key Algorithm: rsaEncryption
                Public-Key: (4096 bit)
                Modulus:
                    00:d0:1d:28:4f:8f:01:ec:95:65:df:69:0b:19:f6:
                    15:88:8e:4f:0a:72:7b:e2:fa:2e:ef:1d:19:71:f9:
                    f9:f4:70:be:8c:f7:d4:c3:64:7d:83:da:72:c1:4b:
                    95:a2:f9:d9:c1:4e:1f:84:37:64:b5:0d:bf:b3:2a:
                    40:8e:13:3b:63:1e:35:1d:ba:e3:95:8a:75:29:23:
                    aa:0e:54:c6:5c:c5:02:58:d0:b1:e1:11:ab:4a:7d:
                    05:40:0d:ba:ce:a0:fd:e1:54:b6:4e:b7:bd:d5:3c:
                    5c:b7:73:84:a7:87:5c:ff:4d:ff:7f:58:17:e9:67:
                    0b:8d:a1:ca:6f:a8:cb:0e:36:6f:dd:f9:2d:81:e7:
                    9d:eb:99:28:7b:e6:ea:50:35:ba:66:80:9d:a8:cf:
                    9d:b8:18:18:81:4e:8c:3a:d5:d2:93:f4:f0:94:b1:
                    ce:72:7e:b4:03:39:29:e4:09:5e:c1:a4:68:95:01:
                    e7:64:6c:b9:d5:bf:69:85:90:05:c3:24:8f:c7:ad:
                    ef:c6:1e:1e:11:bb:58:a0:4f:e1:3d:e8:f9:df:2b:
                    1c:78:eb:b5:c3:f9:0a:c9:d9:14:9c:10:8f:e7:09:
                    2c:e0:b1:e8:fd:b4:bd:39:b7:de:df:e2:51:3b:cc:
                    71:ce:d1:76:00:65:67:5a:a4:2e:57:4e:39:7a:62:
                    46:c9:d8:4a:7a:22:97:72:c2:63:8b:29:1c:ea:c9:
                    10:f4:9d:be:8a:d7:71:10:5e:af:27:12:6f:6f:a0:
                    da:d1:72:30:e1:26:be:1c:8f:59:6b:73:63:c0:9e:
                    c0:fe:f3:6a:5b:89:d2:52:37:38:b2:a1:e9:76:61:
                    6d:8d:1f:f3:41:6b:6b:4d:c5:59:50:92:dc:f8:f6:
                    8e:43:97:d0:8e:fe:82:6f:f0:92:d0:06:b6:5e:23:
                    4e:66:22:63:3f:4a:b4:56:a2:e9:fc:3e:fb:e0:90:
                    24:88:17:fb:46:54:fb:bf:43:e9:51:63:18:a5:6d:
                    7e:9a:9a:a2:13:cc:ac:90:03:8b:1a:5f:72:33:0e:
                    ed:c2:bb:26:53:a7:26:4b:94:1a:fc:7d:9d:ab:c0:
                    de:00:28:83:9a:95:b0:0b:32:32:c2:cc:69:fb:c4:
                    86:86:0d:80:81:19:15:17:cd:6f:02:c4:ec:f6:a2:
                    03:d1:77:a5:55:0f:15:60:fc:47:74:7f:e2:6a:b7:
                    4b:e9:a2:ff:f1:0d:ca:09:22:4d:8a:55:4e:de:dc:
                    4b:16:2d:9d:a4:d7:0e:10:6f:c7:41:2d:1b:e8:56:
                    41:5e:e4:b9:2d:46:cb:89:9b:84:1c:42:bc:03:5c:
                    ae:f9:61:a9:83:88:fb:fd:85:d6:32:f0:c5:49:38:
                    99:b5:4d
                Exponent: 65537 (0x10001)
        X509v3 extensions:
            X509v3 Basic Constraints: 
                CA:TRUE
            X509v3 Key Usage: 
                Certificate Sign
            X509v3 CRL Distribution Points: 

                Full Name:
                  URI:http://example.com/crl.pem

            X509v3 Subject Key Identifier: 
                EB:D8:25:B5:12:46:99:EF:43:93:B1:29:8C:E8:58:00:9F:F0:3A:09
            X509v3 Authority Key Identifier: 
                keyid:92:30:75:13:F7:1B:72:36:55:6E:A8:37:E1:36:D0:08:96:01:BA:22

            X509v3 Subject Alternative Name: 
                DNS:yourserverscanthandlecertsofthismagnitude.trap2-1.zw, DNS:whoputthefreakinfrenchfries.404nofreakinfrenchfries2-1.zw, DNS:aintnopacketbigenough.aintnopinglowenought.aintnocertificatehugeenough2-1.zw, DNS:youputthecertinthefiledescriptor.shakedtlsallup2-1.zw, DNS:spidermanspidermandoeswhateveraspidercan.spinsawebanysizecatchesthievesjustlikeflies.spinsawebanysizecatchesthievesjustlikeflies2-1.zw, DNS:itsame-mario-hello-letsago-nightynighty-ahspaghetti-ahravioli-ahhmamamia.herewego.wha-haha-ya-whaa-hoohooooo-whoaaa-yeeuuh-yippeee-solongehbowser-pressstarttoplay-gameover2-1.zw, DNS:thelittlecertthatcould.byrygranger.thereoncewasacertthatdreamedthathecouldbreaktheserver-hekeptgettinglargertitlesuntilonedayhedid2-1.zw
    Signature Algorithm: sha256WithRSAEncryption
         b3:76:41:d6:9a:be:9b:15:97:8f:fe:9c:fe:c5:4c:1c:f3:22:
         ff:03:fc:e0:1b:95:b9:38:3a:d3:43:1f:9a:56:43:43:d3:fd:
         8a:cc:d1:e1:5a:43:d8:a6:e2:a7:70:34:b6:c9:53:46:1f:37:
         f6:9e:89:8a:92:33:d4:45:ff:03:b8:af:9e:33:4f:b1:64:0b:
         e1:03:7b:fd:f2:1c:95:1b:82:ac:d1:61:0c:a3:ab:6b:9a:9c:
         86:ed:7f:0d:e3:22:7c:3f:d5:b6:4a:f5:60:83:10:ed:de:ed:
         1d:bb:e3:b9:a2:a0:3f:2b:09:b9:56:01:a4:00:ea:1f:03:d8:
         c2:5e:69:ef:87:be:27:d8:9a:0b:6a:3d:c2:d9:bd:3d:0f:d6:
         69:cb:26:7c:60:cf:59:d7:33:55:72:6f:bf:92:9f:ad:87:d6:
         97:f3:91:7d:63:39:13:58:ef:ac:89:04:18:3c:af:24:86:00:
         4b:7e:be:3f:41:56:8d:fa:d8:e7:5e:fa:1c:a5:60:a5:9d:a2:
         dd:32:c7:ad:37:0d:2b:ba:3c:ce:2f:8c:f5:85:9e:84:52:b8:
         d1:dc:cf:85:07:af:56:bf:07:f5:3a:d1:d0:21:b3:7d:d0:67:
         76:70:e9:2e:aa:1d:66:51:b8:57:d3:24:13:18:95:c0:7f:eb:
         ef:c6:1b:02:02:66:04:b6:d6:08:57:ba:20:cf:da:52:d2:47:
         7b:39:00:f1:6e:03:1e:9e:26:fd:6a:f1:bc:54:2d:39:93:57:
         cf:aa:88:d7:fa:87:ad:5d:63:bc:c5:96:d1:ac:f9:a0:fc:06:
         ba:61:4e:df:db:1c:19:c3:59:3b:81:2e:e6:cd:0f:d7:05:a9:
         0e:8d:be:de:f9:8c:0a:93:92:9c:2a:1e:eb:fa:2d:55:dc:72:
         32:d0:37:3e:1b:ab:9d:e9:7f:4c:84:91:30:0f:45:96:0a:9a:
         43:d2:06:4d:32:e5:0d:5d:ab:91:77:e6:46:c5:ba:92:44:81:
         ae:15:b5:ff:5d:6a:b9:27:24:a3:52:76:f9:90:76:6f:6c:14:
         8e:a8:84:d8:25:64:27:a8:74:5c:a8:cc:a5:eb:03:ba:a8:7e:
         04:9f:d8:82:46:1a:57:2f:ea:70:01:3e:80:8d:f1:83:36:22:
         b5:6d:dd:ba:0d:20:ee:54:24:62:28:22:dd:28:7b:89:10:0e:
         a3:e1:36:fc:bd:aa:fb:3e:0f:82:ed:d4:22:92:1f:47:97:a6:
         5f:1e:9e:fe:c3:01:8f:80:21:cb:44:7b:e2:f9:56:35:44:77:
         35:3e:02:7f:62:13:96:6d:2e:18:a8:dd:55:ae:d4:b1:e0:48:
         e0:6d:39:1a:64:58:92:ba
-----BEGIN CERTIFICATE-----
MIIIbDCCBlSgAwIBAgIBBjANBgkqhkiG9w0BAQsFADBKMUgwRgYDVQQDDD9lc3RF
eGFtcGxlSHVnZVNVRElDQS52ZXJ5bG9uZ3dvdy5jaXNjbzEyMy40MDRuZXZlcmV4
aXN0ZWQuencyLTEwHhcNMTkwNDIyMTgwNDA4WhcNMzEwNDA0MTgwNDA4WjBKMUgw
RgYDVQQDDD9lc3RFeGFtcGxlSHVnZVNVRElDQS52ZXJ5bG9uZ3dvdy5jaXNjbzEy
My40MDRuZXZlcmV4aXN0ZWQuencyLTIwggIiMA0GCSqGSIb3DQEBAQUAA4ICDwAw
ggIKAoICAQDQHShPjwHslWXfaQsZ9hWIjk8Kcnvi+i7vHRlx+fn0cL6M99TDZH2D
2nLBS5Wi+dnBTh+EN2S1Db+zKkCOEztjHjUduuOVinUpI6oOVMZcxQJY0LHhEatK
fQVADbrOoP3hVLZOt73VPFy3c4Snh1z/Tf9/WBfpZwuNocpvqMsONm/d+S2B553r
mSh75upQNbpmgJ2oz524GBiBTow61dKT9PCUsc5yfrQDOSnkCV7BpGiVAedkbLnV
v2mFkAXDJI/Hre/GHh4Ru1igT+E96PnfKxx467XD+QrJ2RScEI/nCSzgsej9tL05
t97f4lE7zHHO0XYAZWdapC5XTjl6YkbJ2Ep6IpdywmOLKRzqyRD0nb6K13EQXq8n
Em9voNrRcjDhJr4cj1lrc2PAnsD+82pbidJSNziyoel2YW2NH/NBa2tNxVlQktz4
9o5Dl9CO/oJv8JLQBrZeI05mImM/SrRWoun8PvvgkCSIF/tGVPu/Q+lRYxilbX6a
mqITzKyQA4saX3IzDu3CuyZTpyZLlBr8fZ2rwN4AKIOalbALMjLCzGn7xIaGDYCB
GRUXzW8CxOz2ogPRd6VVDxVg/Ed0f+Jqt0vpov/xDcoJIk2KVU7e3EsWLZ2k1w4Q
b8dBLRvoVkFe5LktRsuJm4QcQrwDXK75YamDiPv9hdYy8MVJOJm1TQIDAQABo4ID
WzCCA1cwDAYDVR0TBAUwAwEB/zALBgNVHQ8EBAMCAgQwKwYDVR0fBCQwIjAgoB6g
HIYaaHR0cDovL2V4YW1wbGUuY29tL2NybC5wZW0wHQYDVR0OBBYEFOvYJbUSRpnv
Q5OxKYzoWACf8DoJMB8GA1UdIwQYMBaAFJIwdRP3G3I2VW6oN+E20AiWAboiMIIC
ywYDVR0RBIICwjCCAr6CNHlvdXJzZXJ2ZXJzY2FudGhhbmRsZWNlcnRzb2Z0aGlz
bWFnbml0dWRlLnRyYXAyLTEueneCOXdob3B1dHRoZWZyZWFraW5mcmVuY2hmcmll
cy40MDRub2ZyZWFraW5mcmVuY2hmcmllczItMS56d4JMYWludG5vcGFja2V0Ymln
ZW5vdWdoLmFpbnRub3Bpbmdsb3dlbm91Z2h0LmFpbnRub2NlcnRpZmljYXRlaHVn
ZWVub3VnaDItMS56d4I1eW91cHV0dGhlY2VydGludGhlZmlsZWRlc2NyaXB0b3Iu
c2hha2VkdGxzYWxsdXAyLTEueneCgYZzcGlkZXJtYW5zcGlkZXJtYW5kb2Vzd2hh
dGV2ZXJhc3BpZGVyY2FuLnNwaW5zYXdlYmFueXNpemVjYXRjaGVzdGhpZXZlc2p1
c3RsaWtlZmxpZXMuc3BpbnNhd2ViYW55c2l6ZWNhdGNoZXN0aGlldmVzanVzdGxp
a2VmbGllczItMS56d4KBsWl0c2FtZS1tYXJpby1oZWxsby1sZXRzYWdvLW5pZ2h0
eW5pZ2h0eS1haHNwYWdoZXR0aS1haHJhdmlvbGktYWhobWFtYW1pYS5oZXJld2Vn
by53aGEtaGFoYS15YS13aGFhLWhvb2hvb29vby13aG9hYWEteWVldXVoLXlpcHBl
ZWUtc29sb25nZWhib3dzZXItcHJlc3NzdGFydHRvcGxheS1nYW1lb3ZlcjItMS56
d4KBiHRoZWxpdHRsZWNlcnR0aGF0Y291bGQuYnlyeWdyYW5nZXIudGhlcmVvbmNl
d2FzYWNlcnR0aGF0ZHJlYW1lZHRoYXRoZWNvdWxkYnJlYWt0aGVzZXJ2ZXItaGVr
ZXB0Z2V0dGluZ2xhcmdlcnRpdGxlc3VudGlsb25lZGF5aGVkaWQyLTEuencwDQYJ
KoZIhvcNAQELBQADggIBALN2QdaavpsVl4/+nP7FTBzzIv8D/OAblbk4OtNDH5pW
Q0PT/YrM0eFaQ9im4qdwNLbJU0YfN/aeiYqSM9RF/wO4r54zT7FkC+EDe/3yHJUb
gqzRYQyjq2uanIbtfw3jInw/1bZK9WCDEO3e7R2747mioD8rCblWAaQA6h8D2MJe
ae+HvifYmgtqPcLZvT0P1mnLJnxgz1nXM1Vyb7+Sn62H1pfzkX1jORNY76yJBBg8
rySGAEt+vj9BVo362Ode+hylYKWdot0yx603DSu6PM4vjPWFnoRSuNHcz4UHr1a/
B/U60dAhs33QZ3Zw6S6qHWZRuFfTJBMYlcB/6+/GGwICZgS21ghXuiDP2lLSR3s5
APFuAx6eJv1q8bxULTmTV8+qiNf6h61dY7zFltGs+aD8BrphTt/bHBnDWTuBLubN
D9cFqQ6Nvt75jAqTkpwqHuv6LVXccjLQNz4bq53pf0yEkTAPRZYKmkPSBk0y5Q1d
q5F35kbFupJEga4Vtf9darknJKNSdvmQdm9sFI6ohNglZCeodFyozKXrA7qofgSf
2IJGGlcv6nABPoCN8YM2IrVt3boNIO5UJGIoIt0oe4kQDqPhNvy9qvs+D4Lt1CKS
H0eXpl8env7DAY+AIctEe+L5VjVEdzU+An9iE5ZtLhio3VWu1LHgSOBtORpkWJK6
-----END CERTIFICATE-----
