Certificate:
    Data:
        Version: 3 (0x2)
        Serial Number: 7 (0x7)
    Signature Algorithm: sha256WithRSAEncryption
        Issuer: CN=estExampleHugeSUDICA.verylongwow.cisco123.404neverexisted.zw2-2
        Validity
            Not Before: Apr 22 18:04:09 2019 GMT
            Not After : Apr  4 18:04:09 2031 GMT
        Subject: CN=estExampleHugeSUDICA.verylongwow.cisco123.404neverexisted.zw2-3
        Subject Public Key Info:
            Public Key Algorithm: rsaEncryption
                Public-Key: (4096 bit)
                Modulus:
                    00:99:25:db:cd:5b:c2:80:76:e2:04:e9:a3:56:54:
                    2b:81:e6:20:e1:df:c8:a9:76:7c:45:8b:cc:38:40:
                    9e:e9:e8:e2:b1:8d:de:96:b1:08:0f:65:a3:bc:3e:
                    8a:bf:0f:72:d7:0f:7e:09:e4:d5:7b:1a:fb:67:d8:
                    cf:70:9a:22:a0:a2:93:e5:8b:fe:f4:43:8a:b4:0d:
                    d6:15:5c:b4:47:e5:e1:53:c8:d1:21:db:06:97:cc:
                    30:e1:23:2f:0d:e8:50:86:92:1b:e3:86:8a:6d:f0:
                    36:0d:bf:23:fb:22:1f:79:d7:5a:eb:f5:93:59:81:
                    e9:6c:82:b9:85:88:e1:5b:b8:3a:59:06:16:17:7d:
                    74:57:28:eb:1f:c9:a5:25:20:25:81:06:2e:f5:18:
                    08:03:6e:26:34:fe:9e:74:ec:a1:ed:93:9d:59:81:
                    2c:50:eb:bd:47:46:24:a2:fc:ef:c3:0e:cf:15:2a:
                    03:3d:07:1c:ce:f8:13:bd:9a:78:7e:4a:40:06:b1:
                    8b:38:1e:1f:9e:4c:36:3b:ff:ba:45:97:52:e1:ea:
                    63:b8:c1:1b:27:c7:3c:4e:49:0e:e7:1a:c9:f4:42:
                    8d:4f:f1:8c:fa:f8:ab:2f:ca:e4:25:9d:2d:cc:d5:
                    a2:bc:d0:43:08:26:4e:1f:76:2d:e4:56:cb:f6:53:
                    f6:1f:db:dc:78:02:7d:68:d7:38:5b:a9:ed:97:12:
                    fa:9d:61:d9:4f:f9:c1:4c:ed:de:91:ca:8d:d3:6b:
                    d2:3f:01:b4:d0:6a:44:fe:92:4d:df:4a:d2:1f:d7:
                    91:b2:72:e7:56:cb:b2:96:a2:09:6e:3c:66:eb:5a:
                    bc:a2:e7:03:2b:ee:ac:48:5a:a1:cb:ff:b3:55:88:
                    5d:8f:60:c0:0d:08:02:7b:27:be:4a:6e:25:12:88:
                    23:ca:55:26:dc:c3:f6:1f:59:fa:14:e5:3f:65:99:
                    2c:da:86:3d:e0:b4:78:c2:d2:24:83:1d:20:4a:1f:
                    ac:b6:79:8e:45:b0:8d:38:3e:0b:5c:7e:07:f0:17:
                    7b:63:55:19:f2:c7:46:1f:e2:db:89:40:b1:56:48:
                    e3:4b:fd:62:2e:aa:67:24:be:09:99:64:9c:a7:cd:
                    79:4c:35:c2:ef:ed:a9:cd:68:9f:82:b9:17:c5:f9:
                    2b:55:0c:bc:b0:55:22:9a:09:b1:11:60:4d:0f:e4:
                    d6:ae:fa:73:7d:6a:56:44:60:37:02:11:14:2b:2e:
                    6f:6a:3c:3b:5c:31:60:bc:b5:f4:34:e0:3d:0f:9f:
                    5d:e5:00:ef:32:b6:6e:fe:7f:2e:7b:8f:a5:40:b3:
                    fc:bd:6d:02:3c:f0:53:e4:75:f4:e3:4b:21:3c:8e:
                    9d:01:b5
                Exponent: 65537 (0x10001)
        X509v3 extensions:
            X509v3 Basic Constraints: 
                CA:TRUE
            X509v3 Key Usage: 
                Certificate Sign
            X509v3 CRL Distribution Points: 

                Full Name:
                  URI:http://example.com/crl.pem

            X509v3 Subject Key Identifier: 
                AC:0A:69:31:D1:32:12:61:89:42:24:DC:67:FD:1E:A2:31:A0:9C:FF
            X509v3 Authority Key Identifier: 
                keyid:EB:D8:25:B5:12:46:99:EF:43:93:B1:29:8C:E8:58:00:9F:F0:3A:09

            X509v3 Subject Alternative Name: 
                DNS:yourserverscanthandlecertsofthismagnitude.trap2-2.zw, DNS:whoputthefreakinfrenchfries.404nofreakinfrenchfries2-2.zw, DNS:aintnopacketbigenough.aintnopinglowenought.aintnocertificatehugeenough2-2.zw, DNS:youputthecertinthefiledescriptor.shakedtlsallup2-2.zw, DNS:spidermanspidermandoeswhateveraspidercan.spinsawebanysizecatchesthievesjustlikeflies.spinsawebanysizecatchesthievesjustlikeflies2-2.zw, DNS:itsame-mario-hello-letsago-nightynighty-ahspaghetti-ahravioli-ahhmamamia.herewego.wha-haha-ya-whaa-hoohooooo-whoaaa-yeeuuh-yippeee-solongehbowser-pressstarttoplay-gameover2-2.zw, DNS:thelittlecertthatcould.byrygranger.thereoncewasacertthatdreamedthathecouldbreaktheserver-hekeptgettinglargertitlesuntilonedayhedid2-2.zw
    Signature Algorithm: sha256WithRSAEncryption
         8c:4f:84:46:c4:23:f4:f8:e4:af:0c:6c:51:6a:27:54:0f:01:
         64:56:13:4c:1d:e8:32:27:64:35:44:19:a9:69:4d:0d:1a:34:
         a7:58:7e:44:90:a6:2d:90:78:71:5f:29:9d:4b:92:c9:1a:d2:
         a3:29:95:d3:d1:8a:27:16:58:44:7c:fa:19:6b:f8:bf:c0:60:
         a9:af:18:8c:95:0b:6b:8d:ea:d3:b6:40:2b:1d:97:8f:8b:ee:
         9d:7f:c0:ea:35:89:cc:8c:29:2e:ef:2e:65:46:8b:26:c7:3c:
         1b:e1:5c:41:24:42:98:98:a8:39:3e:14:0f:24:dc:42:ee:20:
         d8:11:52:f5:5f:63:a4:9e:03:f2:09:a3:e0:47:f4:3d:3a:76:
         16:c0:83:6c:a4:46:8c:28:bf:21:ef:2a:73:f8:b7:44:65:c3:
         35:ca:96:a8:4a:3c:39:93:4a:5d:72:3a:39:4b:59:25:7c:5a:
         1e:01:9b:86:f7:20:f4:93:2d:00:99:7f:c7:90:39:57:d5:f6:
         5c:3d:e3:e4:d9:78:84:09:5d:f1:2e:1d:34:83:b2:9d:d1:cd:
         a4:97:40:e5:21:76:d6:65:0f:d8:ed:c9:32:d5:de:b5:5f:c2:
         15:57:77:d4:37:f8:2f:c8:da:95:6f:f8:0a:f9:be:fb:5d:06:
         32:6e:a5:aa:69:e8:ef:b9:1c:0b:02:c0:1d:3a:91:8e:fc:aa:
         67:a8:82:f2:fd:23:d9:74:10:aa:5b:cc:4f:f2:7a:2e:5e:08:
         b3:c8:1c:bb:e0:dc:23:af:6c:52:0e:d9:36:21:39:28:be:cd:
         df:da:52:a3:57:30:4c:5f:3c:07:22:02:ac:b3:a1:69:4a:6b:
         ad:63:c6:7f:65:1b:ed:15:76:86:aa:0c:c9:3d:1c:95:4e:92:
         a2:97:f3:5f:dc:1c:0f:e7:87:e1:f0:e4:b2:26:1c:97:3a:13:
         f6:ca:ec:e0:b6:41:38:36:46:c4:e6:e2:83:56:91:55:2f:b4:
         3b:c8:e0:f3:08:45:8c:d4:9b:2e:53:d8:6f:ed:4f:63:b2:5e:
         51:09:d3:39:cb:75:22:74:e3:51:71:f7:38:d8:d0:9f:19:e0:
         db:37:1d:d0:bc:fe:1d:03:f7:af:f1:03:06:7c:93:ce:20:3a:
         06:b6:ae:fa:d0:99:d7:70:9d:29:b0:d5:78:06:af:7e:4a:88:
         32:ee:62:7b:40:d1:4d:00:ad:35:93:17:6b:b6:49:3b:bf:fb:
         f3:00:28:b3:3d:ec:79:d2:74:39:d9:77:d2:6d:03:35:f8:f0:
         a2:b9:49:28:55:e0:e0:f6:0d:5a:44:57:76:0e:4b:eb:e4:82:
         84:9d:27:4b:3f:09:6b:59
-----BEGIN CERTIFICATE-----
MIIIbDCCBlSgAwIBAgIBBzANBgkqhkiG9w0BAQsFADBKMUgwRgYDVQQDDD9lc3RF
eGFtcGxlSHVnZVNVRElDQS52ZXJ5bG9uZ3dvdy5jaXNjbzEyMy40MDRuZXZlcmV4
aXN0ZWQuencyLTIwHhcNMTkwNDIyMTgwNDA5WhcNMzEwNDA0MTgwNDA5WjBKMUgw
RgYDVQQDDD9lc3RFeGFtcGxlSHVnZVNVRElDQS52ZXJ5bG9uZ3dvdy5jaXNjbzEy
My40MDRuZXZlcmV4aXN0ZWQuencyLTMwggIiMA0GCSqGSIb3DQEBAQUAA4ICDwAw
ggIKAoICAQCZJdvNW8KAduIE6aNWVCuB5iDh38ipdnxFi8w4QJ7p6OKxjd6WsQgP
ZaO8Poq/D3LXD34J5NV7Gvtn2M9wmiKgopPli/70Q4q0DdYVXLRH5eFTyNEh2waX
zDDhIy8N6FCGkhvjhopt8DYNvyP7Ih9511rr9ZNZgelsgrmFiOFbuDpZBhYXfXRX
KOsfyaUlICWBBi71GAgDbiY0/p507KHtk51ZgSxQ671HRiSi/O/DDs8VKgM9BxzO
+BO9mnh+SkAGsYs4Hh+eTDY7/7pFl1Lh6mO4wRsnxzxOSQ7nGsn0Qo1P8Yz6+Ksv
yuQlnS3M1aK80EMIJk4fdi3kVsv2U/Yf29x4An1o1zhbqe2XEvqdYdlP+cFM7d6R
yo3Ta9I/AbTQakT+kk3fStIf15GycudWy7KWogluPGbrWryi5wMr7qxIWqHL/7NV
iF2PYMANCAJ7J75KbiUSiCPKVSbcw/YfWfoU5T9lmSzahj3gtHjC0iSDHSBKH6y2
eY5FsI04PgtcfgfwF3tjVRnyx0Yf4tuJQLFWSONL/WIuqmckvgmZZJynzXlMNcLv
7anNaJ+CuRfF+StVDLywVSKaCbERYE0P5Nau+nN9alZEYDcCERQrLm9qPDtcMWC8
tfQ04D0Pn13lAO8ytm7+fy57j6VAs/y9bQI88FPkdfTjSyE8jp0BtQIDAQABo4ID
WzCCA1cwDAYDVR0TBAUwAwEB/zALBgNVHQ8EBAMCAgQwKwYDVR0fBCQwIjAgoB6g
HIYaaHR0cDovL2V4YW1wbGUuY29tL2NybC5wZW0wHQYDVR0OBBYEFKwKaTHRMhJh
iUIk3Gf9HqIxoJz/MB8GA1UdIwQYMBaAFOvYJbUSRpnvQ5OxKYzoWACf8DoJMIIC
ywYDVR0RBIICwjCCAr6CNHlvdXJzZXJ2ZXJzY2FudGhhbmRsZWNlcnRzb2Z0aGlz
bWFnbml0dWRlLnRyYXAyLTIueneCOXdob3B1dHRoZWZyZWFraW5mcmVuY2hmcmll
cy40MDRub2ZyZWFraW5mcmVuY2hmcmllczItMi56d4JMYWludG5vcGFja2V0Ymln
ZW5vdWdoLmFpbnRub3Bpbmdsb3dlbm91Z2h0LmFpbnRub2NlcnRpZmljYXRlaHVn
ZWVub3VnaDItMi56d4I1eW91cHV0dGhlY2VydGludGhlZmlsZWRlc2NyaXB0b3Iu
c2hha2VkdGxzYWxsdXAyLTIueneCgYZzcGlkZXJtYW5zcGlkZXJtYW5kb2Vzd2hh
dGV2ZXJhc3BpZGVyY2FuLnNwaW5zYXdlYmFueXNpemVjYXRjaGVzdGhpZXZlc2p1
c3RsaWtlZmxpZXMuc3BpbnNhd2ViYW55c2l6ZWNhdGNoZXN0aGlldmVzanVzdGxp
a2VmbGllczItMi56d4KBsWl0c2FtZS1tYXJpby1oZWxsby1sZXRzYWdvLW5pZ2h0
eW5pZ2h0eS1haHNwYWdoZXR0aS1haHJhdmlvbGktYWhobWFtYW1pYS5oZXJld2Vn
by53aGEtaGFoYS15YS13aGFhLWhvb2hvb29vby13aG9hYWEteWVldXVoLXlpcHBl
ZWUtc29sb25nZWhib3dzZXItcHJlc3NzdGFydHRvcGxheS1nYW1lb3ZlcjItMi56
d4KBiHRoZWxpdHRsZWNlcnR0aGF0Y291bGQuYnlyeWdyYW5nZXIudGhlcmVvbmNl
d2FzYWNlcnR0aGF0ZHJlYW1lZHRoYXRoZWNvdWxkYnJlYWt0aGVzZXJ2ZXItaGVr
ZXB0Z2V0dGluZ2xhcmdlcnRpdGxlc3VudGlsb25lZGF5aGVkaWQyLTIuencwDQYJ
KoZIhvcNAQELBQADggIBAIxPhEbEI/T45K8MbFFqJ1QPAWRWE0wd6DInZDVEGalp
TQ0aNKdYfkSQpi2QeHFfKZ1Lkska0qMpldPRiicWWER8+hlr+L/AYKmvGIyVC2uN
6tO2QCsdl4+L7p1/wOo1icyMKS7vLmVGiybHPBvhXEEkQpiYqDk+FA8k3ELuINgR
UvVfY6SeA/IJo+BH9D06dhbAg2ykRowovyHvKnP4t0RlwzXKlqhKPDmTSl1yOjlL
WSV8Wh4Bm4b3IPSTLQCZf8eQOVfV9lw94+TZeIQJXfEuHTSDsp3RzaSXQOUhdtZl
D9jtyTLV3rVfwhVXd9Q3+C/I2pVv+Ar5vvtdBjJupapp6O+5HAsCwB06kY78qmeo
gvL9I9l0EKpbzE/yei5eCLPIHLvg3COvbFIO2TYhOSi+zd/aUqNXMExfPAciAqyz
oWlKa61jxn9lG+0VdoaqDMk9HJVOkqKX81/cHA/nh+Hw5LImHJc6E/bK7OC2QTg2
RsTm4oNWkVUvtDvI4PMIRYzUmy5T2G/tT2OyXlEJ0znLdSJ041Fx9zjY0J8Z4Ns3
HdC8/h0D96/xAwZ8k84gOga2rvrQmddwnSmw1XgGr35KiDLuYntA0U0ArTWTF2u2
STu/+/MAKLM97HnSdDnZd9JtAzX48KK5SShV4OD2DVpEV3YOS+vkgoSdJ0s/CWtZ
-----END CERTIFICATE-----
