Certificate:
    Data:
        Version: 3 (0x2)
        Serial Number: 8 (0x8)
    Signature Algorithm: sha256WithRSAEncryption
        Issuer: CN=estExampleHugeSUDICA.verylongwow.cisco123.404neverexisted.zw2-3
        Validity
            Not Before: Apr 22 18:04:11 2019 GMT
            Not After : Apr  4 18:04:11 2031 GMT
        Subject: CN=estExampleHugeSUDICA.verylongwow.cisco123.404neverexisted.zw2-4
        Subject Public Key Info:
            Public Key Algorithm: rsaEncryption
                Public-Key: (4096 bit)
                Modulus:
                    00:bd:3e:d4:c2:7c:b2:08:e9:e5:53:66:98:97:36:
                    f1:cc:09:8c:12:da:43:d7:b3:8d:c4:19:76:45:1b:
                    08:7e:52:41:4b:70:a6:a4:ae:4f:02:47:a6:a2:af:
                    26:13:eb:15:9f:de:6f:1b:e4:1e:44:35:02:a9:74:
                    6a:16:e0:ab:c1:7b:4d:7b:73:be:06:36:39:94:d3:
                    b3:c9:e3:92:92:32:44:93:57:31:76:e8:8e:33:3b:
                    3b:1b:44:2d:e6:b8:92:8e:68:76:07:68:49:73:03:
                    2f:4f:bf:de:73:55:44:7d:84:ea:42:50:04:d2:ed:
                    2a:8c:0a:47:45:ef:86:8f:55:11:06:02:73:6b:50:
                    ae:6c:fc:4d:36:59:ad:21:cc:1b:de:14:b3:74:ca:
                    93:ee:32:b9:e8:57:0e:c0:13:05:a3:4a:d5:10:39:
                    10:99:08:12:72:b1:31:0b:76:58:74:d4:f0:b2:56:
                    37:bc:b6:a8:b1:3a:1d:a3:f9:53:d6:50:60:7a:cf:
                    51:ee:02:70:1d:7d:96:ad:5c:40:c6:39:d1:b0:7e:
                    78:64:c9:96:ee:56:9f:6d:9b:72:77:d6:64:29:69:
                    18:48:42:c6:4e:ad:53:bb:95:ad:94:38:97:c3:b2:
                    e4:dd:6b:ef:b1:97:cd:a9:32:e5:88:ee:00:f6:e9:
                    8c:18:61:85:1a:41:35:76:ec:d3:a4:66:a5:8b:83:
                    c9:fa:03:41:1d:45:05:f5:49:76:28:32:96:a8:7c:
                    f0:b3:4c:48:e9:c4:59:a5:b6:aa:cb:74:71:e8:95:
                    df:67:1b:7b:d8:87:12:4d:78:62:38:9d:b6:1a:36:
                    04:89:a1:e7:36:8f:f0:38:de:08:1e:39:5a:25:d6:
                    74:b8:56:bf:bb:c0:4e:7f:47:c3:ef:21:31:64:76:
                    5b:36:9c:4a:33:6b:db:9c:b6:3d:a7:f4:6d:32:d4:
                    be:6b:e3:a0:dd:e8:3c:b7:da:fe:5a:12:81:dc:ba:
                    d6:53:72:59:86:9e:06:6c:5e:fe:86:65:50:bb:4a:
                    08:f1:51:c5:38:d5:1e:29:0c:f0:7c:65:88:56:61:
                    1a:c5:ae:8d:7b:e2:01:bf:d5:fb:52:86:d0:76:87:
                    1b:61:61:e5:2c:a4:c0:12:63:c2:9c:f4:1c:c7:96:
                    31:aa:72:80:06:b2:c8:c6:c8:2d:16:84:f6:40:5e:
                    5d:a0:0e:65:2c:29:19:76:a4:6f:56:1e:5c:a1:4d:
                    58:9d:41:75:ae:ec:26:58:50:cf:c4:8c:2a:50:a5:
                    fb:10:2b:db:c7:eb:69:d5:b9:f8:25:12:cb:f8:09:
                    5e:b0:2e:2a:1f:a6:2e:da:ce:3b:70:ac:32:3e:cd:
                    58:0b:af
                Exponent: 65537 (0x10001)
        X509v3 extensions:
            X509v3 Basic Constraints: 
                CA:TRUE
            X509v3 Key Usage: 
                Certificate Sign
            X509v3 CRL Distribution Points: 

                Full Name:
                  URI:http://example.com/crl.pem

            X509v3 Subject Key Identifier: 
                BB:B0:A8:B6:2F:14:42:5A:80:06:68:2D:29:6B:07:0F:E7:7E:5C:33
            X509v3 Authority Key Identifier: 
                keyid:AC:0A:69:31:D1:32:12:61:89:42:24:DC:67:FD:1E:A2:31:A0:9C:FF

            X509v3 Subject Alternative Name: 
                DNS:yourserverscanthandlecertsofthismagnitude.trap2-3.zw, DNS:whoputthefreakinfrenchfries.404nofreakinfrenchfries2-3.zw, DNS:aintnopacketbigenough.aintnopinglowenought.aintnocertificatehugeenough2-3.zw, DNS:youputthecertinthefiledescriptor.shakedtlsallup2-3.zw, DNS:spidermanspidermandoeswhateveraspidercan.spinsawebanysizecatchesthievesjustlikeflies.spinsawebanysizecatchesthievesjustlikeflies2-3.zw, DNS:itsame-mario-hello-letsago-nightynighty-ahspaghetti-ahravioli-ahhmamamia.herewego.wha-haha-ya-whaa-hoohooooo-whoaaa-yeeuuh-yippeee-solongehbowser-pressstarttoplay-gameover2-3.zw, DNS:thelittlecertthatcould.byrygranger.thereoncewasacertthatdreamedthathecouldbreaktheserver-hekeptgettinglargertitlesuntilonedayhedid2-3.zw
    Signature Algorithm: sha256WithRSAEncryption
         37:56:68:04:dc:4e:7b:e1:3c:4e:73:9b:6f:fc:f8:74:2a:a2:
         83:92:84:93:ec:05:ba:2e:ec:25:82:c4:e6:1a:69:5f:1e:84:
         3f:00:2f:2d:4e:82:43:90:0e:36:62:ba:de:45:87:15:dc:71:
         92:ee:da:2d:93:fc:47:5d:fc:4e:ed:ce:b9:54:1d:29:97:bd:
         20:e4:97:66:ef:f2:a2:be:19:6b:58:a9:3d:e9:09:e3:76:d4:
         be:79:4e:30:bc:7c:f3:b2:2d:92:84:aa:1e:78:2b:f7:2f:dd:
         6e:af:3b:36:cc:92:2f:e3:1f:1c:95:99:ee:f4:6b:7c:3e:a5:
         14:28:c7:9b:66:9d:49:60:51:e4:f3:e4:0b:0c:8d:f0:19:61:
         49:0e:48:68:bd:08:99:d2:4d:10:68:74:46:90:e6:3a:ce:90:
         0c:0e:65:3c:b8:8f:04:60:e9:c1:96:6b:9c:c4:1e:09:86:43:
         ed:00:07:3f:7c:00:20:e5:86:5b:30:95:c6:d0:00:37:83:55:
         e0:d0:df:57:de:49:d8:2b:7e:52:8e:91:06:4c:41:b4:b5:b4:
         25:c9:14:11:c7:6d:c1:db:0a:70:ef:c3:67:a2:c2:84:9d:21:
         e6:ed:29:c3:57:a5:22:dd:cd:b6:15:c8:f9:30:e1:67:fd:b2:
         39:18:72:b8:d8:c8:80:2c:55:70:e2:69:d1:be:f4:f4:00:3b:
         95:67:cc:1b:e0:3c:63:ee:f7:bd:71:df:b0:16:9d:60:b2:44:
         72:25:80:94:1e:06:9b:57:7a:8f:f3:74:93:66:b2:53:32:81:
         b2:4c:08:89:fd:22:19:f0:52:17:f2:21:8b:9e:b0:a1:c6:ee:
         b9:f8:80:58:00:df:0c:5c:17:d7:50:3d:ff:f2:ed:a6:9b:ef:
         f1:26:39:f5:a0:8e:fd:ec:6d:72:57:04:66:0b:eb:6a:58:c7:
         a3:50:a8:2f:aa:55:8f:b3:2a:05:91:d4:94:e3:fb:ae:db:f9:
         56:00:37:5f:84:c1:e1:b3:2f:f5:07:6d:0f:f3:05:8e:f8:c0:
         cf:35:33:19:e1:16:89:ab:a0:f3:a4:3f:54:cd:a2:18:0e:98:
         05:da:8f:88:8d:31:d8:e4:7c:58:c2:27:2e:82:c9:04:9b:1c:
         38:f4:d8:a2:8a:34:0a:7b:0c:0e:1e:27:d1:04:03:39:61:f3:
         25:e4:0c:d1:c2:bd:e4:3e:8c:6b:bd:db:c1:7f:0b:8e:90:64:
         96:03:d4:c5:9a:08:ae:ae:3e:5b:f2:3d:c3:a7:85:42:53:b3:
         cd:75:f4:5f:b4:07:32:0d:02:6e:16:93:3e:67:64:35:cc:46:
         34:36:d7:1c:8b:96:a9:0e
-----BEGIN CERTIFICATE-----
MIIIbDCCBlSgAwIBAgIBCDANBgkqhkiG9w0BAQsFADBKMUgwRgYDVQQDDD9lc3RF
eGFtcGxlSHVnZVNVRElDQS52ZXJ5bG9uZ3dvdy5jaXNjbzEyMy40MDRuZXZlcmV4
aXN0ZWQuencyLTMwHhcNMTkwNDIyMTgwNDExWhcNMzEwNDA0MTgwNDExWjBKMUgw
RgYDVQQDDD9lc3RFeGFtcGxlSHVnZVNVRElDQS52ZXJ5bG9uZ3dvdy5jaXNjbzEy
My40MDRuZXZlcmV4aXN0ZWQuencyLTQwggIiMA0GCSqGSIb3DQEBAQUAA4ICDwAw
ggIKAoICAQC9PtTCfLII6eVTZpiXNvHMCYwS2kPXs43EGXZFGwh+UkFLcKakrk8C
R6airyYT6xWf3m8b5B5ENQKpdGoW4KvBe017c74GNjmU07PJ45KSMkSTVzF26I4z
OzsbRC3muJKOaHYHaElzAy9Pv95zVUR9hOpCUATS7SqMCkdF74aPVREGAnNrUK5s
/E02Wa0hzBveFLN0ypPuMrnoVw7AEwWjStUQORCZCBJysTELdlh01PCyVje8tqix
Oh2j+VPWUGB6z1HuAnAdfZatXEDGOdGwfnhkyZbuVp9tm3J31mQpaRhIQsZOrVO7
la2UOJfDsuTda++xl82pMuWI7gD26YwYYYUaQTV27NOkZqWLg8n6A0EdRQX1SXYo
MpaofPCzTEjpxFmltqrLdHHold9nG3vYhxJNeGI4nbYaNgSJoec2j/A43ggeOVol
1nS4Vr+7wE5/R8PvITFkdls2nEoza9uctj2n9G0y1L5r46Dd6Dy32v5aEoHcutZT
clmGngZsXv6GZVC7SgjxUcU41R4pDPB8ZYhWYRrFro174gG/1ftShtB2hxthYeUs
pMASY8Kc9BzHljGqcoAGssjGyC0WhPZAXl2gDmUsKRl2pG9WHlyhTVidQXWu7CZY
UM/EjCpQpfsQK9vH62nVufglEsv4CV6wLiofpi7azjtwrDI+zVgLrwIDAQABo4ID
WzCCA1cwDAYDVR0TBAUwAwEB/zALBgNVHQ8EBAMCAgQwKwYDVR0fBCQwIjAgoB6g
HIYaaHR0cDovL2V4YW1wbGUuY29tL2NybC5wZW0wHQYDVR0OBBYEFLuwqLYvFEJa
gAZoLSlrBw/nflwzMB8GA1UdIwQYMBaAFKwKaTHRMhJhiUIk3Gf9HqIxoJz/MIIC
ywYDVR0RBIICwjCCAr6CNHlvdXJzZXJ2ZXJzY2FudGhhbmRsZWNlcnRzb2Z0aGlz
bWFnbml0dWRlLnRyYXAyLTMueneCOXdob3B1dHRoZWZyZWFraW5mcmVuY2hmcmll
cy40MDRub2ZyZWFraW5mcmVuY2hmcmllczItMy56d4JMYWludG5vcGFja2V0Ymln
ZW5vdWdoLmFpbnRub3Bpbmdsb3dlbm91Z2h0LmFpbnRub2NlcnRpZmljYXRlaHVn
ZWVub3VnaDItMy56d4I1eW91cHV0dGhlY2VydGludGhlZmlsZWRlc2NyaXB0b3Iu
c2hha2VkdGxzYWxsdXAyLTMueneCgYZzcGlkZXJtYW5zcGlkZXJtYW5kb2Vzd2hh
dGV2ZXJhc3BpZGVyY2FuLnNwaW5zYXdlYmFueXNpemVjYXRjaGVzdGhpZXZlc2p1
c3RsaWtlZmxpZXMuc3BpbnNhd2ViYW55c2l6ZWNhdGNoZXN0aGlldmVzanVzdGxp
a2VmbGllczItMy56d4KBsWl0c2FtZS1tYXJpby1oZWxsby1sZXRzYWdvLW5pZ2h0
eW5pZ2h0eS1haHNwYWdoZXR0aS1haHJhdmlvbGktYWhobWFtYW1pYS5oZXJld2Vn
by53aGEtaGFoYS15YS13aGFhLWhvb2hvb29vby13aG9hYWEteWVldXVoLXlpcHBl
ZWUtc29sb25nZWhib3dzZXItcHJlc3NzdGFydHRvcGxheS1nYW1lb3ZlcjItMy56
d4KBiHRoZWxpdHRsZWNlcnR0aGF0Y291bGQuYnlyeWdyYW5nZXIudGhlcmVvbmNl
d2FzYWNlcnR0aGF0ZHJlYW1lZHRoYXRoZWNvdWxkYnJlYWt0aGVzZXJ2ZXItaGVr
ZXB0Z2V0dGluZ2xhcmdlcnRpdGxlc3VudGlsb25lZGF5aGVkaWQyLTMuencwDQYJ
KoZIhvcNAQELBQADggIBADdWaATcTnvhPE5zm2/8+HQqooOShJPsBbou7CWCxOYa
aV8ehD8ALy1OgkOQDjZiut5FhxXccZLu2i2T/Edd/E7tzrlUHSmXvSDkl2bv8qK+
GWtYqT3pCeN21L55TjC8fPOyLZKEqh54K/cv3W6vOzbMki/jHxyVme70a3w+pRQo
x5tmnUlgUeTz5AsMjfAZYUkOSGi9CJnSTRBodEaQ5jrOkAwOZTy4jwRg6cGWa5zE
HgmGQ+0ABz98ACDlhlswlcbQADeDVeDQ31feSdgrflKOkQZMQbS1tCXJFBHHbcHb
CnDvw2eiwoSdIebtKcNXpSLdzbYVyPkw4Wf9sjkYcrjYyIAsVXDiadG+9PQAO5Vn
zBvgPGPu971x37AWnWCyRHIlgJQeBptXeo/zdJNmslMygbJMCIn9IhnwUhfyIYue
sKHG7rn4gFgA3wxcF9dQPf/y7aab7/EmOfWgjv3sbXJXBGYL62pYx6NQqC+qVY+z
KgWR1JTj+67b+VYAN1+EweGzL/UHbQ/zBY74wM81MxnhFomroPOkP1TNohgOmAXa
j4iNMdjkfFjCJy6CyQSbHDj02KKKNAp7DA4eJ9EEAzlh8yXkDNHCveQ+jGu928F/
C46QZJYD1MWaCK6uPlvyPcOnhUJTs8119F+0BzINAm4Wkz5nZDXMRjQ21xyLlqkO
-----END CERTIFICATE-----
