Certificate:
    Data:
        Version: 3 (0x2)
        Serial Number: 9 (0x9)
    Signature Algorithm: sha256WithRSAEncryption
        Issuer: CN=estExampleHugeSUDICA.verylongwow.cisco123.404neverexisted.zw2-4
        Validity
            Not Before: Apr 22 18:04:11 2019 GMT
            Not After : Apr  4 18:04:11 2031 GMT
        Subject: CN=estExampleHugeSUDICA.verylongwow.cisco123.404neverexisted.zw2-5
        Subject Public Key Info:
            Public Key Algorithm: rsaEncryption
                Public-Key: (4096 bit)
                Modulus:
                    00:d8:79:5c:57:52:46:cf:e9:97:67:e1:5a:f5:f8:
                    e8:d1:f1:24:43:a5:fd:de:10:41:75:5a:6d:82:f5:
                    d1:29:25:71:10:a3:0c:e5:67:03:c2:b7:08:db:36:
                    20:fa:8e:a3:11:d0:59:ec:c4:c9:45:1f:20:0f:3f:
                    e6:7d:99:7b:f8:a8:9e:84:10:21:cf:8b:ee:d7:f2:
                    36:1d:3d:e7:4d:e9:2f:50:63:ea:8c:c7:59:6e:62:
                    32:17:87:e4:e1:50:40:38:51:fe:e8:cc:fd:b7:1d:
                    bb:2b:b2:9f:0a:26:01:65:c2:67:fe:d4:b3:dc:22:
                    06:21:71:67:a9:95:11:c4:13:79:83:10:7c:65:b4:
                    8d:f7:ea:48:d6:b9:f2:6a:34:a4:81:ea:18:c3:b8:
                    3d:9a:3e:08:20:d7:cf:8d:42:a0:cb:5d:27:89:ed:
                    3a:fd:c2:50:02:81:89:cc:80:a8:cd:fe:68:e6:63:
                    1d:52:62:c2:3b:f7:7c:45:f4:b8:6d:45:b7:99:69:
                    23:b3:42:0c:e2:6f:69:27:62:16:50:4c:90:1c:d9:
                    a8:48:c1:9a:d4:86:92:36:4c:4e:f2:9d:04:f1:0d:
                    d3:5c:78:f8:e7:34:76:5e:1f:b1:96:20:c4:81:ce:
                    31:df:b0:8d:f5:a4:4a:f8:f6:e3:9d:6d:8f:35:58:
                    fa:4b:14:42:be:c0:78:80:de:88:7d:30:5b:4b:73:
                    5f:40:9b:ad:84:6c:2b:30:34:d0:52:7c:ad:56:00:
                    fd:4b:57:55:c9:9a:bb:03:41:9d:a4:4d:12:3a:3b:
                    38:63:a5:eb:f1:f4:46:ee:14:44:16:d5:41:2f:fd:
                    bc:4e:11:7b:a6:5d:90:ef:63:32:cd:0d:e3:61:33:
                    e4:80:88:cc:ed:c1:ec:eb:33:79:07:fa:b4:5a:30:
                    ba:bb:8b:40:cd:27:eb:6a:a2:ad:b1:22:84:71:08:
                    25:f3:17:6c:2a:d5:f9:57:2b:26:6c:f0:a4:83:1c:
                    59:76:bf:15:65:84:c7:48:06:ef:7e:37:ac:77:88:
                    af:6e:7d:62:51:9d:ef:86:69:f2:cd:b4:10:34:f9:
                    5b:23:49:93:9b:67:38:6e:f5:56:62:d1:a4:e8:b1:
                    e2:e1:4f:f8:b7:16:33:83:10:1f:58:9f:95:1b:a4:
                    ab:97:55:1f:26:2b:b3:6e:36:b6:b9:8c:8f:3c:d9:
                    88:12:6f:8e:c2:f4:5b:95:51:a1:53:8b:e8:38:7a:
                    eb:4f:da:5b:fc:b4:58:14:8c:ae:f1:fe:0a:3c:5e:
                    c0:e3:fa:52:f8:c9:9b:52:dc:f5:9b:16:d3:61:cc:
                    02:a0:93:86:d6:3a:95:15:14:ee:09:38:ec:eb:54:
                    61:ca:0d
                Exponent: 65537 (0x10001)
        X509v3 extensions:
            X509v3 Basic Constraints: 
                CA:TRUE
            X509v3 Key Usage: 
                Certificate Sign
            X509v3 CRL Distribution Points: 

                Full Name:
                  URI:http://example.com/crl.pem

            X509v3 Subject Key Identifier: 
                5B:96:35:E7:91:4D:74:0B:54:52:9D:27:AA:9B:C5:95:6E:7A:05:F6
            X509v3 Authority Key Identifier: 
                keyid:BB:B0:A8:B6:2F:14:42:5A:80:06:68:2D:29:6B:07:0F:E7:7E:5C:33

            X509v3 Subject Alternative Name: 
                DNS:yourserverscanthandlecertsofthismagnitude.trap2-4.zw, DNS:whoputthefreakinfrenchfries.404nofreakinfrenchfries2-4.zw, DNS:aintnopacketbigenough.aintnopinglowenought.aintnocertificatehugeenough2-4.zw, DNS:youputthecertinthefiledescriptor.shakedtlsallup2-4.zw, DNS:spidermanspidermandoeswhateveraspidercan.spinsawebanysizecatchesthievesjustlikeflies.spinsawebanysizecatchesthievesjustlikeflies2-4.zw, DNS:itsame-mario-hello-letsago-nightynighty-ahspaghetti-ahravioli-ahhmamamia.herewego.wha-haha-ya-whaa-hoohooooo-whoaaa-yeeuuh-yippeee-solongehbowser-pressstarttoplay-gameover2-4.zw, DNS:thelittlecertthatcould.byrygranger.thereoncewasacertthatdreamedthathecouldbreaktheserver-hekeptgettinglargertitlesuntilonedayhedid2-4.zw
    Signature Algorithm: sha256WithRSAEncryption
         73:61:40:7d:1f:6b:d2:74:da:ef:77:1e:b4:b9:b7:26:af:07:
         61:a1:91:79:c7:ef:ad:27:64:5f:47:b6:13:c3:eb:22:2a:3e:
         de:86:75:13:59:41:68:8c:31:ab:f4:3e:d9:67:eb:8a:38:47:
         ce:d2:b8:d9:ff:d9:ca:3d:c0:c8:0e:d5:3a:30:a7:4a:d1:65:
         30:c7:d4:1a:79:e1:12:c3:c9:f3:d9:0a:0c:d5:7c:4b:bc:ad:
         41:c1:fc:44:81:51:2c:67:b7:1f:74:eb:90:a3:9e:8d:92:5f:
         94:a1:6d:7b:aa:54:ec:32:5b:b7:df:6c:82:8c:07:8a:bb:bc:
         b2:dd:76:4e:1a:ff:66:f0:81:5c:7e:ce:e3:54:31:79:03:d8:
         c9:c9:0e:1c:52:dc:06:c9:db:ad:fc:14:75:bf:f0:d0:11:d8:
         9a:8a:92:5e:09:b6:66:b6:56:9e:93:52:d8:f5:92:85:34:cb:
         30:02:05:0b:ff:ff:a1:a3:96:08:ba:ef:86:b0:04:94:29:bb:
         66:0a:5e:ea:c5:f1:17:09:9e:8a:d2:21:f4:68:38:dc:cc:43:
         4b:48:96:34:d4:4a:51:7a:57:ca:85:ac:b1:fd:76:fc:83:3d:
         41:4f:ab:73:f6:b4:b8:64:dc:97:c0:25:2a:22:a9:35:76:08:
         a8:c2:7a:8e:c0:63:50:17:86:9a:2f:a8:46:4d:0c:c9:8e:8e:
         f7:fa:29:5c:d3:59:dc:bb:93:8e:5b:4a:66:b4:11:06:e9:60:
         34:d1:f3:3f:7d:53:1b:44:eb:1d:4e:c2:f6:88:f3:0a:b0:86:
         61:51:1c:2a:c8:f9:76:d1:c5:20:b2:95:0c:ee:a1:04:bf:50:
         e6:92:21:69:d1:f7:e6:ad:63:d4:fb:a7:8b:38:3a:dd:00:d5:
         09:d1:8e:2e:e9:39:bc:d9:de:6f:f5:0e:9e:73:45:05:cf:78:
         ba:f7:6d:77:72:14:ed:fc:db:a3:3b:3f:e5:b2:95:43:ea:06:
         29:05:ad:86:aa:55:08:4a:5c:00:41:13:a7:c4:36:18:48:9f:
         ad:65:11:f4:9d:3d:0b:29:62:75:bc:f3:8c:41:a5:ad:2a:bc:
         98:fe:e0:38:c8:0c:1c:75:18:9a:54:64:ea:46:49:5b:b9:c2:
         ed:e9:0c:af:45:2b:60:96:38:97:2c:70:b8:f6:50:da:b8:26:
         c3:e2:eb:ef:54:ad:7d:d5:cf:c2:5a:65:39:5b:f9:dd:67:fd:
         50:70:c3:53:bc:5c:b3:f3:e2:17:a8:5a:e8:f1:c5:27:b5:84:
         80:f0:f0:9f:69:8b:84:e3:4e:93:4d:d6:3b:5b:28:1c:1e:0b:
         72:95:e5:7c:78:f7:b6:2e
-----BEGIN CERTIFICATE-----
MIIIbDCCBlSgAwIBAgIBCTANBgkqhkiG9w0BAQsFADBKMUgwRgYDVQQDDD9lc3RF
eGFtcGxlSHVnZVNVRElDQS52ZXJ5bG9uZ3dvdy5jaXNjbzEyMy40MDRuZXZlcmV4
aXN0ZWQuencyLTQwHhcNMTkwNDIyMTgwNDExWhcNMzEwNDA0MTgwNDExWjBKMUgw
RgYDVQQDDD9lc3RFeGFtcGxlSHVnZVNVRElDQS52ZXJ5bG9uZ3dvdy5jaXNjbzEy
My40MDRuZXZlcmV4aXN0ZWQuencyLTUwggIiMA0GCSqGSIb3DQEBAQUAA4ICDwAw
ggIKAoICAQDYeVxXUkbP6Zdn4Vr1+OjR8SRDpf3eEEF1Wm2C9dEpJXEQowzlZwPC
twjbNiD6jqMR0FnsxMlFHyAPP+Z9mXv4qJ6EECHPi+7X8jYdPedN6S9QY+qMx1lu
YjIXh+ThUEA4Uf7ozP23Hbsrsp8KJgFlwmf+1LPcIgYhcWeplRHEE3mDEHxltI33
6kjWufJqNKSB6hjDuD2aPggg18+NQqDLXSeJ7Tr9wlACgYnMgKjN/mjmYx1SYsI7
93xF9LhtRbeZaSOzQgzib2knYhZQTJAc2ahIwZrUhpI2TE7ynQTxDdNcePjnNHZe
H7GWIMSBzjHfsI31pEr49uOdbY81WPpLFEK+wHiA3oh9MFtLc19Am62EbCswNNBS
fK1WAP1LV1XJmrsDQZ2kTRI6Ozhjpevx9EbuFEQW1UEv/bxOEXumXZDvYzLNDeNh
M+SAiMztwezrM3kH+rRaMLq7i0DNJ+tqoq2xIoRxCCXzF2wq1flXKyZs8KSDHFl2
vxVlhMdIBu9+N6x3iK9ufWJRne+GafLNtBA0+VsjSZObZzhu9VZi0aToseLhT/i3
FjODEB9Yn5UbpKuXVR8mK7NuNra5jI882YgSb47C9FuVUaFTi+g4eutP2lv8tFgU
jK7x/go8XsDj+lL4yZtS3PWbFtNhzAKgk4bWOpUVFO4JOOzrVGHKDQIDAQABo4ID
WzCCA1cwDAYDVR0TBAUwAwEB/zALBgNVHQ8EBAMCAgQwKwYDVR0fBCQwIjAgoB6g
HIYaaHR0cDovL2V4YW1wbGUuY29tL2NybC5wZW0wHQYDVR0OBBYEFFuWNeeRTXQL
VFKdJ6qbxZVuegX2MB8GA1UdIwQYMBaAFLuwqLYvFEJagAZoLSlrBw/nflwzMIIC
ywYDVR0RBIICwjCCAr6CNHlvdXJzZXJ2ZXJzY2FudGhhbmRsZWNlcnRzb2Z0aGlz
bWFnbml0dWRlLnRyYXAyLTQueneCOXdob3B1dHRoZWZyZWFraW5mcmVuY2hmcmll
cy40MDRub2ZyZWFraW5mcmVuY2hmcmllczItNC56d4JMYWludG5vcGFja2V0Ymln
ZW5vdWdoLmFpbnRub3Bpbmdsb3dlbm91Z2h0LmFpbnRub2NlcnRpZmljYXRlaHVn
ZWVub3VnaDItNC56d4I1eW91cHV0dGhlY2VydGludGhlZmlsZWRlc2NyaXB0b3Iu
c2hha2VkdGxzYWxsdXAyLTQueneCgYZzcGlkZXJtYW5zcGlkZXJtYW5kb2Vzd2hh
dGV2ZXJhc3BpZGVyY2FuLnNwaW5zYXdlYmFueXNpemVjYXRjaGVzdGhpZXZlc2p1
c3RsaWtlZmxpZXMuc3BpbnNhd2ViYW55c2l6ZWNhdGNoZXN0aGlldmVzanVzdGxp
a2VmbGllczItNC56d4KBsWl0c2FtZS1tYXJpby1oZWxsby1sZXRzYWdvLW5pZ2h0
eW5pZ2h0eS1haHNwYWdoZXR0aS1haHJhdmlvbGktYWhobWFtYW1pYS5oZXJld2Vn
by53aGEtaGFoYS15YS13aGFhLWhvb2hvb29vby13aG9hYWEteWVldXVoLXlpcHBl
ZWUtc29sb25nZWhib3dzZXItcHJlc3NzdGFydHRvcGxheS1nYW1lb3ZlcjItNC56
d4KBiHRoZWxpdHRsZWNlcnR0aGF0Y291bGQuYnlyeWdyYW5nZXIudGhlcmVvbmNl
d2FzYWNlcnR0aGF0ZHJlYW1lZHRoYXRoZWNvdWxkYnJlYWt0aGVzZXJ2ZXItaGVr
ZXB0Z2V0dGluZ2xhcmdlcnRpdGxlc3VudGlsb25lZGF5aGVkaWQyLTQuencwDQYJ
KoZIhvcNAQELBQADggIBAHNhQH0fa9J02u93HrS5tyavB2GhkXnH760nZF9HthPD
6yIqPt6GdRNZQWiMMav0Ptln64o4R87SuNn/2co9wMgO1Towp0rRZTDH1Bp54RLD
yfPZCgzVfEu8rUHB/ESBUSxntx9065Cjno2SX5ShbXuqVOwyW7ffbIKMB4q7vLLd
dk4a/2bwgVx+zuNUMXkD2MnJDhxS3AbJ2638FHW/8NAR2JqKkl4Jtma2Vp6TUtj1
koU0yzACBQv//6Gjlgi674awBJQpu2YKXurF8RcJnorSIfRoONzMQ0tIljTUSlF6
V8qFrLH9dvyDPUFPq3P2tLhk3JfAJSoiqTV2CKjCeo7AY1AXhpovqEZNDMmOjvf6
KVzTWdy7k45bSma0EQbpYDTR8z99UxtE6x1OwvaI8wqwhmFRHCrI+XbRxSCylQzu
oQS/UOaSIWnR9+atY9T7p4s4Ot0A1QnRji7pObzZ3m/1Dp5zRQXPeLr3bXdyFO38
26M7P+WylUPqBikFrYaqVQhKXABBE6fENhhIn61lEfSdPQspYnW884xBpa0qvJj+
4DjIDBx1GJpUZOpGSVu5wu3pDK9FK2CWOJcscLj2UNq4JsPi6+9UrX3Vz8JaZTlb
+d1n/VBww1O8XLPz4heoWujxxSe1hIDw8J9pi4TjTpNN1jtbKBweC3KV5Xx497Yu
-----END CERTIFICATE-----
