Certificate:
    Data:
        Version: 3 (0x2)
        Serial Number: 10 (0xa)
    Signature Algorithm: sha256WithRSAEncryption
        Issuer: CN=estExampleHugeSUDICA.verylongwow.cisco123.404neverexisted.zw2-5
        Validity
            Not Before: Apr 22 18:04:12 2019 GMT
            Not After : Apr  4 18:04:12 2031 GMT
        Subject: CN=estExampleHugeSUDICA.verylongwow.cisco123.404neverexisted.zw2-6
        Subject Public Key Info:
            Public Key Algorithm: rsaEncryption
                Public-Key: (4096 bit)
                Modulus:
                    00:b6:63:8a:aa:54:e1:ea:50:54:99:f0:16:46:80:
                    58:ef:af:82:bd:0e:26:69:4c:29:c2:e7:25:79:3f:
                    eb:99:bf:6a:ed:d9:8c:37:bf:7a:7d:40:81:a6:bd:
                    a7:28:d6:54:d0:3e:c6:c8:31:ba:6a:a5:5d:f3:92:
                    4e:9d:bd:bb:2d:14:cd:c7:fa:f0:20:79:93:9e:60:
                    d6:c8:01:29:b1:45:b3:8d:e3:f6:8f:de:75:40:67:
                    83:17:c9:6e:a5:51:4e:b3:9c:24:f3:2f:b4:69:2c:
                    b7:ee:5e:09:27:84:13:92:b9:f1:c3:78:07:b5:26:
                    0c:8f:65:5a:5b:8c:e4:9b:e0:0f:4d:0e:b2:e6:38:
                    51:b0:41:b7:30:98:68:29:ea:6e:1a:e7:36:20:be:
                    25:6d:46:e5:91:dd:fe:5b:c6:c4:e0:3b:62:87:ff:
                    9f:36:84:4e:b4:c4:79:1e:5c:a8:c2:c5:96:3f:17:
                    d9:5b:56:28:49:e4:8c:3a:a4:16:d4:dd:53:4b:25:
                    20:4e:2c:64:7a:5a:63:20:bf:06:89:61:8a:78:c5:
                    8d:c9:fe:82:d7:7d:46:a4:0b:fb:61:16:12:ff:5f:
                    2b:44:b9:75:d4:a4:37:23:13:48:3f:fd:aa:1a:b0:
                    3a:49:00:38:c3:78:68:0f:2c:9e:b7:b0:80:d1:62:
                    46:ff:6d:9a:e0:5e:39:da:4f:be:39:6a:8c:fc:43:
                    7e:b0:ca:bb:30:26:58:2b:b6:59:3e:60:2f:64:d1:
                    c9:03:c4:a6:d7:93:8f:aa:ee:50:4d:13:f3:8a:d3:
                    22:ec:e8:e4:71:3f:57:b2:e8:7e:e3:76:b8:5a:30:
                    78:91:52:38:5f:12:6f:34:b7:04:34:79:13:eb:93:
                    c1:2f:13:8b:bd:84:e6:ca:10:eb:a4:d6:50:5b:6d:
                    c7:2d:fb:fe:b3:00:12:d2:09:e1:e7:91:4a:81:74:
                    bb:56:e5:d5:4c:d6:db:3f:4b:59:cc:0a:9f:c0:02:
                    3f:ce:c7:04:2a:83:e1:d5:53:6d:a8:b0:85:29:cc:
                    f3:75:c3:37:64:f6:81:2c:a0:b3:5e:d4:ae:fa:8e:
                    b8:29:b8:5b:3e:fa:2d:c6:be:29:96:54:ef:87:a9:
                    ab:37:50:61:74:c2:64:e9:24:3c:01:bf:d6:1f:d5:
                    8b:b0:1b:05:94:ed:5b:bc:11:1a:ee:db:a6:33:f5:
                    64:ce:d1:93:3a:b7:7c:cd:08:22:42:4e:58:99:c8:
                    7e:24:63:70:2e:f6:c4:76:b3:ea:fd:bd:10:fe:14:
                    f6:61:c1:fb:9f:23:d2:4c:43:49:b0:76:12:74:8b:
                    1b:24:c2:3d:40:01:4d:ca:a0:fc:8c:f0:30:7f:cd:
                    3b:cc:d3
                Exponent: 65537 (0x10001)
        X509v3 extensions:
            X509v3 Basic Constraints: 
                CA:TRUE
            X509v3 Key Usage: 
                Certificate Sign
            X509v3 CRL Distribution Points: 

                Full Name:
                  URI:http://example.com/crl.pem

            X509v3 Subject Key Identifier: 
                36:47:6C:32:E6:D7:19:3F:1C:DC:48:96:15:BA:47:7E:03:0B:26:15
            X509v3 Authority Key Identifier: 
                keyid:5B:96:35:E7:91:4D:74:0B:54:52:9D:27:AA:9B:C5:95:6E:7A:05:F6

            X509v3 Subject Alternative Name: 
                DNS:yourserverscanthandlecertsofthismagnitude.trap2-5.zw, DNS:whoputthefreakinfrenchfries.404nofreakinfrenchfries2-5.zw, DNS:aintnopacketbigenough.aintnopinglowenought.aintnocertificatehugeenough2-5.zw, DNS:youputthecertinthefiledescriptor.shakedtlsallup2-5.zw, DNS:spidermanspidermandoeswhateveraspidercan.spinsawebanysizecatchesthievesjustlikeflies.spinsawebanysizecatchesthievesjustlikeflies2-5.zw, DNS:itsame-mario-hello-letsago-nightynighty-ahspaghetti-ahravioli-ahhmamamia.herewego.wha-haha-ya-whaa-hoohooooo-whoaaa-yeeuuh-yippeee-solongehbowser-pressstarttoplay-gameover2-5.zw, DNS:thelittlecertthatcould.byrygranger.thereoncewasacertthatdreamedthathecouldbreaktheserver-hekeptgettinglargertitlesuntilonedayhedid2-5.zw
    Signature Algorithm: sha256WithRSAEncryption
         20:94:04:a5:dd:3f:ac:d3:6b:af:a3:b3:ac:70:51:f3:53:db:
         fc:eb:91:1a:cd:bf:2e:11:22:21:dd:7d:32:bc:e9:cd:2c:a4:
         f9:aa:8d:58:52:ca:50:74:3e:cc:c0:ec:40:31:db:19:e7:b5:
         c2:0c:a7:1b:0d:bc:e0:61:2e:65:fc:16:7d:85:c1:3f:d3:b1:
         b8:19:38:7c:b5:11:ca:a0:3d:47:4b:26:e7:61:87:84:e9:c4:
         11:85:c8:e8:1c:0d:bb:58:b7:a2:fc:b1:24:11:50:e9:4e:c5:
         8c:b1:e9:66:f8:11:02:f9:e0:32:28:a3:5d:f6:15:2e:d8:fe:
         cb:93:0b:70:d8:a3:80:a9:98:cb:0f:fb:fa:3d:fa:15:c1:56:
         1e:8e:ca:ce:cf:d8:0a:e4:8a:e8:4c:f0:10:2c:12:f7:2c:07:
         06:b1:04:05:d3:ad:12:87:96:01:43:e3:8b:18:b9:a0:9b:d9:
         d3:97:ad:12:75:73:25:f3:91:70:dd:26:de:57:69:5e:22:f1:
         49:2b:a2:e6:da:82:a5:c6:98:13:f2:ca:b7:6b:f8:fd:8d:10:
         6a:12:90:b4:8b:ba:db:d3:52:54:04:5a:b1:d0:5a:6b:23:72:
         da:ce:b5:63:72:bf:d5:43:32:17:2c:1f:04:82:01:ad:e4:15:
         92:f8:33:93:3d:22:b4:c9:ef:3c:42:86:d1:68:37:63:20:f0:
         d0:3f:36:ce:e7:2b:1c:53:54:d6:2b:18:38:e9:a4:0f:ec:9a:
         52:5b:4a:fd:5d:c0:f9:a7:f5:22:2d:c8:ab:52:9a:89:de:04:
         cf:6e:de:91:8d:0b:73:29:9f:37:8f:46:d5:bc:2b:a9:02:f8:
         cb:f2:42:5f:d6:fc:b6:f1:53:7e:d8:97:23:58:37:3d:eb:3b:
         dd:8d:12:ac:62:8d:aa:dd:0f:3d:0f:c3:df:e6:62:dc:02:81:
         85:9d:bf:4f:77:dc:27:f1:92:14:72:59:03:37:a4:6f:be:fc:
         b7:da:7b:37:db:28:7a:c0:54:5d:95:cc:d5:70:28:8f:19:d0:
         b6:d0:4a:fc:0e:0e:cd:25:05:23:96:f7:9d:ab:bd:ea:a9:74:
         57:96:a2:d1:f2:d4:84:be:b9:06:e5:ff:86:08:68:2f:24:8e:
         c1:ab:fa:08:96:5a:cb:b8:9d:07:d9:cb:cb:f6:fe:e3:53:96:
         5a:d2:f6:dc:1d:26:60:2b:e0:7b:cd:a8:71:75:80:c6:c8:28:
         db:4b:bd:b8:77:fd:8a:0d:1a:c4:3f:75:10:a3:69:ec:35:fa:
         51:50:3a:cd:84:df:bf:ac:fc:7f:58:fa:32:ac:f1:b8:23:4b:
         09:43:ca:e1:27:2d:f3:66
-----BEGIN CERTIFICATE-----
MIIIbDCCBlSgAwIBAgIBCjANBgkqhkiG9w0BAQsFADBKMUgwRgYDVQQDDD9lc3RF
eGFtcGxlSHVnZVNVRElDQS52ZXJ5bG9uZ3dvdy5jaXNjbzEyMy40MDRuZXZlcmV4
aXN0ZWQuencyLTUwHhcNMTkwNDIyMTgwNDEyWhcNMzEwNDA0MTgwNDEyWjBKMUgw
RgYDVQQDDD9lc3RFeGFtcGxlSHVnZVNVRElDQS52ZXJ5bG9uZ3dvdy5jaXNjbzEy
My40MDRuZXZlcmV4aXN0ZWQuencyLTYwggIiMA0GCSqGSIb3DQEBAQUAA4ICDwAw
ggIKAoICAQC2Y4qqVOHqUFSZ8BZGgFjvr4K9DiZpTCnC5yV5P+uZv2rt2Yw3v3p9
QIGmvaco1lTQPsbIMbpqpV3zkk6dvbstFM3H+vAgeZOeYNbIASmxRbON4/aP3nVA
Z4MXyW6lUU6znCTzL7RpLLfuXgknhBOSufHDeAe1JgyPZVpbjOSb4A9NDrLmOFGw
QbcwmGgp6m4a5zYgviVtRuWR3f5bxsTgO2KH/582hE60xHkeXKjCxZY/F9lbVihJ
5Iw6pBbU3VNLJSBOLGR6WmMgvwaJYYp4xY3J/oLXfUakC/thFhL/XytEuXXUpDcj
E0g//aoasDpJADjDeGgPLJ63sIDRYkb/bZrgXjnaT745aoz8Q36wyrswJlgrtlk+
YC9k0ckDxKbXk4+q7lBNE/OK0yLs6ORxP1ey6H7jdrhaMHiRUjhfEm80twQ0eRPr
k8EvE4u9hObKEOuk1lBbbcct+/6zABLSCeHnkUqBdLtW5dVM1ts/S1nMCp/AAj/O
xwQqg+HVU22osIUpzPN1wzdk9oEsoLNe1K76jrgpuFs++i3GvimWVO+Hqas3UGF0
wmTpJDwBv9Yf1YuwGwWU7Vu8ERru26Yz9WTO0ZM6t3zNCCJCTliZyH4kY3Au9sR2
s+r9vRD+FPZhwfufI9JMQ0mwdhJ0ixskwj1AAU3KoPyM8DB/zTvM0wIDAQABo4ID
WzCCA1cwDAYDVR0TBAUwAwEB/zALBgNVHQ8EBAMCAgQwKwYDVR0fBCQwIjAgoB6g
HIYaaHR0cDovL2V4YW1wbGUuY29tL2NybC5wZW0wHQYDVR0OBBYEFDZHbDLm1xk/
HNxIlhW6R34DCyYVMB8GA1UdIwQYMBaAFFuWNeeRTXQLVFKdJ6qbxZVuegX2MIIC
ywYDVR0RBIICwjCCAr6CNHlvdXJzZXJ2ZXJzY2FudGhhbmRsZWNlcnRzb2Z0aGlz
bWFnbml0dWRlLnRyYXAyLTUueneCOXdob3B1dHRoZWZyZWFraW5mcmVuY2hmcmll
cy40MDRub2ZyZWFraW5mcmVuY2hmcmllczItNS56d4JMYWludG5vcGFja2V0Ymln
ZW5vdWdoLmFpbnRub3Bpbmdsb3dlbm91Z2h0LmFpbnRub2NlcnRpZmljYXRlaHVn
ZWVub3VnaDItNS56d4I1eW91cHV0dGhlY2VydGludGhlZmlsZWRlc2NyaXB0b3Iu
c2hha2VkdGxzYWxsdXAyLTUueneCgYZzcGlkZXJtYW5zcGlkZXJtYW5kb2Vzd2hh
dGV2ZXJhc3BpZGVyY2FuLnNwaW5zYXdlYmFueXNpemVjYXRjaGVzdGhpZXZlc2p1
c3RsaWtlZmxpZXMuc3BpbnNhd2ViYW55c2l6ZWNhdGNoZXN0aGlldmVzanVzdGxp
a2VmbGllczItNS56d4KBsWl0c2FtZS1tYXJpby1oZWxsby1sZXRzYWdvLW5pZ2h0
eW5pZ2h0eS1haHNwYWdoZXR0aS1haHJhdmlvbGktYWhobWFtYW1pYS5oZXJld2Vn
by53aGEtaGFoYS15YS13aGFhLWhvb2hvb29vby13aG9hYWEteWVldXVoLXlpcHBl
ZWUtc29sb25nZWhib3dzZXItcHJlc3NzdGFydHRvcGxheS1nYW1lb3ZlcjItNS56
d4KBiHRoZWxpdHRsZWNlcnR0aGF0Y291bGQuYnlyeWdyYW5nZXIudGhlcmVvbmNl
d2FzYWNlcnR0aGF0ZHJlYW1lZHRoYXRoZWNvdWxkYnJlYWt0aGVzZXJ2ZXItaGVr
ZXB0Z2V0dGluZ2xhcmdlcnRpdGxlc3VudGlsb25lZGF5aGVkaWQyLTUuencwDQYJ
KoZIhvcNAQELBQADggIBACCUBKXdP6zTa6+js6xwUfNT2/zrkRrNvy4RIiHdfTK8
6c0spPmqjVhSylB0PszA7EAx2xnntcIMpxsNvOBhLmX8Fn2FwT/TsbgZOHy1Ecqg
PUdLJudhh4TpxBGFyOgcDbtYt6L8sSQRUOlOxYyx6Wb4EQL54DIoo132FS7Y/suT
C3DYo4CpmMsP+/o9+hXBVh6Oys7P2ArkiuhM8BAsEvcsBwaxBAXTrRKHlgFD44sY
uaCb2dOXrRJ1cyXzkXDdJt5XaV4i8UkroubagqXGmBPyyrdr+P2NEGoSkLSLutvT
UlQEWrHQWmsjctrOtWNyv9VDMhcsHwSCAa3kFZL4M5M9IrTJ7zxChtFoN2Mg8NA/
Ns7nKxxTVNYrGDjppA/smlJbSv1dwPmn9SItyKtSmoneBM9u3pGNC3MpnzePRtW8
K6kC+MvyQl/W/LbxU37YlyNYNz3rO92NEqxijardDz0Pw9/mYtwCgYWdv0933Cfx
khRyWQM3pG++/LfaezfbKHrAVF2VzNVwKI8Z0LbQSvwODs0lBSOW952rveqpdFeW
otHy1IS+uQbl/4YIaC8kjsGr+giWWsu4nQfZy8v2/uNTllrS9twdJmAr4HvNqHF1
gMbIKNtLvbh3/YoNGsQ/dRCjaew1+lFQOs2E37+s/H9Y+jKs8bgjSwlDyuEnLfNm
-----END CERTIFICATE-----
