Certificate:
    Data:
        Version: 3 (0x2)
        Serial Number: 11 (0xb)
    Signature Algorithm: sha256WithRSAEncryption
        Issuer: CN=estExampleHugeSUDICA.verylongwow.cisco123.404neverexisted.zw2-6
        Validity
            Not Before: Apr 22 18:04:12 2019 GMT
            Not After : Apr  4 18:04:12 2031 GMT
        Subject: CN=127.0.0.1
        Subject Public Key Info:
            Public Key Algorithm: rsaEncryption
                Public-Key: (4096 bit)
                Modulus:
                    00:9f:ec:ab:79:00:b6:b4:bf:c3:d5:c9:d4:57:22:
                    ff:b0:aa:97:ae:54:ee:b7:ac:36:0b:fc:54:82:e1:
                    01:75:a1:63:2a:35:04:30:ff:ad:7b:6b:c7:37:b1:
                    32:c0:de:81:47:a7:01:10:53:2c:92:80:be:9b:a1:
                    1a:73:47:29:d5:5b:b0:36:d1:25:a1:93:06:00:b1:
                    bb:52:d3:f6:5b:86:c8:c2:4d:19:84:c5:a5:19:ee:
                    21:ad:7b:4a:84:bf:c3:73:6f:b6:3a:06:0d:69:dc:
                    62:c8:23:97:db:7b:87:c7:d9:b9:45:72:0c:55:c7:
                    35:3f:a9:b4:f3:5d:fc:46:15:0a:17:c6:d0:e5:37:
                    3a:a8:4d:16:8b:ef:9a:1f:1d:b6:08:4f:ca:ae:e0:
                    1e:9f:5a:37:93:98:63:90:2f:e2:9c:a0:00:69:63:
                    55:58:28:01:72:98:74:c3:f0:c5:43:0a:4d:62:95:
                    e0:bf:61:10:d1:67:69:09:75:cf:ef:72:eb:f6:62:
                    2b:f0:c1:00:2f:15:af:ae:8a:84:83:38:0e:30:b6:
                    33:55:d0:cf:dd:1c:46:44:ad:1d:da:e6:d2:89:16:
                    7c:96:6a:42:6e:bc:b5:7d:69:8d:3c:31:aa:93:0e:
                    43:93:d4:fc:5b:83:2a:fc:8d:1b:8c:41:09:64:8a:
                    e0:78:87:1c:08:4a:64:13:ff:ee:19:7e:ee:52:d3:
                    38:79:1c:44:c7:73:e8:b1:31:9f:e8:dd:31:7a:3c:
                    5b:d3:a8:31:a8:2d:97:ed:d0:bc:12:93:8a:c3:91:
                    6e:55:44:ab:50:ba:c5:aa:3e:6d:25:d1:9e:97:69:
                    1a:dc:ff:80:e0:4a:f8:0f:b9:b6:01:27:0b:99:08:
                    33:bb:64:36:83:31:b0:05:5a:5d:b3:c5:b4:77:3c:
                    ef:1c:b4:f5:d5:28:36:e0:6f:d2:c5:90:da:82:09:
                    ea:9f:28:a4:46:9d:19:da:b2:23:7d:57:fb:55:85:
                    c6:f4:ae:d4:8f:8c:12:6d:37:ea:b1:ca:36:7c:24:
                    f3:6b:3b:2e:26:a6:d0:1e:5f:29:b4:69:80:e8:5f:
                    04:1b:31:fd:5b:26:80:95:11:90:82:1b:56:1b:ae:
                    56:bd:c9:16:50:ae:a9:2b:45:89:a6:8c:4b:99:ac:
                    f4:be:e2:84:57:b6:49:72:c8:97:05:ac:c5:0b:7d:
                    8c:4e:00:7a:4c:f6:ca:f3:96:59:f2:50:60:3b:27:
                    df:8b:8f:b7:13:1d:c6:10:52:2e:b2:61:91:8f:d2:
                    dd:63:c1:c8:b6:54:0c:e7:53:df:29:35:0c:db:b1:
                    fa:d6:d6:d5:d0:8c:22:aa:8a:a7:ae:7a:ae:1e:ba:
                    ea:6d:63
                Exponent: 65537 (0x10001)
        X509v3 extensions:
            X509v3 Basic Constraints: 
                CA:FALSE
            X509v3 Key Usage: 
                Digital Signature, Non Repudiation, Key Encipherment
            X509v3 Subject Alternative Name: 
                DNS:localhost, DNS:ip6-localhost, IP Address:127.0.0.1, IP Address:0:0:0:0:0:0:0:1
            X509v3 CRL Distribution Points: 

                Full Name:
                  URI:http://example.com/crl.pem

    Signature Algorithm: sha256WithRSAEncryption
         53:b4:a7:37:a5:60:02:d0:10:9a:50:7b:60:57:01:40:0a:da:
         25:be:fd:90:25:8f:bc:81:aa:3a:ff:29:a9:39:51:1f:12:f1:
         f9:93:77:47:1d:27:e6:3e:db:1d:4a:cd:3f:67:40:5a:d9:5b:
         ff:0e:ca:ee:3c:71:2b:09:00:ea:b5:49:59:4f:c1:1b:58:d3:
         e2:eb:d9:84:fa:46:bb:82:b4:7f:7e:29:ed:23:2d:92:37:e4:
         1b:e1:0d:17:17:ed:66:43:cd:fc:5e:ae:ce:c2:fb:48:04:7d:
         52:4e:65:c0:e0:7d:36:ad:bb:8a:fc:73:e3:0f:31:a2:0a:8c:
         e2:ca:d2:2f:95:c6:9d:14:c4:24:55:1b:b9:7b:4a:27:39:9e:
         31:f0:09:a2:a3:b9:e0:81:e0:b1:19:98:20:c8:ec:0d:22:92:
         4b:59:20:cd:39:42:3e:e5:5e:db:7c:32:90:51:45:c0:68:a6:
         48:ac:c9:c9:93:83:0f:00:eb:98:3c:af:fa:c8:5a:1e:18:44:
         ed:1a:d6:54:c1:e5:7f:21:5d:b3:b3:a7:04:03:3e:d1:73:af:
         f1:ee:9d:18:8a:ce:fd:82:13:6d:b5:b8:25:c5:f1:b7:0e:a7:
         de:d8:15:36:c0:19:8e:25:8c:a3:32:05:42:12:d0:fc:50:0f:
         78:5b:2a:dd:1b:62:69:48:ab:a6:f2:6a:75:e7:28:a2:ef:ce:
         ba:16:74:8f:3b:86:7b:27:ee:d4:c8:bf:6b:19:f2:dc:cc:f6:
         4a:b3:4f:ad:d7:86:5d:0f:72:f8:77:8c:ea:9c:fc:12:48:7d:
         b3:d8:4d:47:30:dd:35:a1:5e:8f:61:c1:27:bb:91:71:99:cf:
         20:0c:8f:36:83:68:35:6a:a7:69:69:d8:ca:2c:9a:08:b9:ba:
         1d:85:33:8d:5c:3c:7e:7f:ff:7b:5b:78:05:dc:cd:2e:fb:bb:
         bd:b1:56:df:d7:a3:5d:83:e9:05:b0:e2:ff:38:c8:1b:1b:8d:
         6b:1e:e7:36:02:d8:d2:e3:e6:91:42:1f:7f:1e:5c:2a:e2:8e:
         2a:fa:a1:43:4c:d7:d3:85:0c:73:0f:70:0e:51:68:b2:f7:1f:
         89:48:a8:ac:f5:aa:de:94:69:ad:c3:6f:12:4f:71:89:af:23:
         8a:ca:ad:75:67:c7:a5:36:14:2d:99:04:5c:d9:ab:ae:fc:20:
         21:3c:c9:1e:d1:f0:b9:55:71:9f:1f:98:fe:16:c2:46:da:3e:
         bf:1f:c5:d7:43:07:72:d2:f7:50:30:cb:18:38:d2:c4:09:55:
         b4:f3:78:92:bb:74:89:52:aa:0d:bb:b5:1c:49:aa:2e:26:d4:
         a3:f0:52:61:d2:3a:ac:5b
-----BEGIN CERTIFICATE-----
MIIFXzCCA0egAwIBAgIBCzANBgkqhkiG9w0BAQsFADBKMUgwRgYDVQQDDD9lc3RF
eGFtcGxlSHVnZVNVRElDQS52ZXJ5bG9uZ3dvdy5jaXNjbzEyMy40MDRuZXZlcmV4
aXN0ZWQuencyLTYwHhcNMTkwNDIyMTgwNDEyWhcNMzEwNDA0MTgwNDEyWjAUMRIw
EAYDVQQDDAkxMjcuMC4wLjEwggIiMA0GCSqGSIb3DQEBAQUAA4ICDwAwggIKAoIC
AQCf7Kt5ALa0v8PVydRXIv+wqpeuVO63rDYL/FSC4QF1oWMqNQQw/617a8c3sTLA
3oFHpwEQUyySgL6boRpzRynVW7A20SWhkwYAsbtS0/ZbhsjCTRmExaUZ7iGte0qE
v8Nzb7Y6Bg1p3GLII5fbe4fH2blFcgxVxzU/qbTzXfxGFQoXxtDlNzqoTRaL75of
HbYIT8qu4B6fWjeTmGOQL+KcoABpY1VYKAFymHTD8MVDCk1ileC/YRDRZ2kJdc/v
cuv2YivwwQAvFa+uioSDOA4wtjNV0M/dHEZErR3a5tKJFnyWakJuvLV9aY08MaqT
DkOT1Pxbgyr8jRuMQQlkiuB4hxwISmQT/+4Zfu5S0zh5HETHc+ixMZ/o3TF6PFvT
qDGoLZft0LwSk4rDkW5VRKtQusWqPm0l0Z6XaRrc/4DgSvgPubYBJwuZCDO7ZDaD
MbAFWl2zxbR3PO8ctPXVKDbgb9LFkNqCCeqfKKRGnRnasiN9V/tVhcb0rtSPjBJt
N+qxyjZ8JPNrOy4mptAeXym0aYDoXwQbMf1bJoCVEZCCG1Ybrla9yRZQrqkrRYmm
jEuZrPS+4oRXtklyyJcFrMULfYxOAHpM9srzllnyUGA7J9+Lj7cTHcYQUi6yYZGP
0t1jwci2VAznU98pNQzbsfrW1tXQjCKqiqeueq4euuptYwIDAQABo4GFMIGCMAkG
A1UdEwQCMAAwCwYDVR0PBAQDAgXgMDsGA1UdEQQ0MDKCCWxvY2FsaG9zdIINaXA2
LWxvY2FsaG9zdIcEfwAAAYcQAAAAAAAAAAAAAAAAAAAAATArBgNVHR8EJDAiMCCg
HqAchhpodHRwOi8vZXhhbXBsZS5jb20vY3JsLnBlbTANBgkqhkiG9w0BAQsFAAOC
AgEAU7SnN6VgAtAQmlB7YFcBQAraJb79kCWPvIGqOv8pqTlRHxLx+ZN3Rx0n5j7b
HUrNP2dAWtlb/w7K7jxxKwkA6rVJWU/BG1jT4uvZhPpGu4K0f34p7SMtkjfkG+EN
FxftZkPN/F6uzsL7SAR9Uk5lwOB9Nq27ivxz4w8xogqM4srSL5XGnRTEJFUbuXtK
JzmeMfAJoqO54IHgsRmYIMjsDSKSS1kgzTlCPuVe23wykFFFwGimSKzJyZODDwDr
mDyv+shaHhhE7RrWVMHlfyFds7OnBAM+0XOv8e6dGIrO/YITbbW4JcXxtw6n3tgV
NsAZjiWMozIFQhLQ/FAPeFsq3RtiaUirpvJqdecoou/OuhZ0jzuGeyfu1Mi/axny
3Mz2SrNPrdeGXQ9y+HeM6pz8Ekh9s9hNRzDdNaFej2HBJ7uRcZnPIAyPNoNoNWqn
aWnYyiyaCLm6HYUzjVw8fn//e1t4BdzNLvu7vbFW39ejXYPpBbDi/zjIGxuNax7n
NgLY0uPmkUIffx5cKuKOKvqhQ0zX04UMcw9wDlFosvcfiUiorPWq3pRprcNvEk9x
ia8jisqtdWfHpTYULZkEXNmrrvwgITzJHtHwuVVxnx+Y/hbCRto+vx/F10MHctL3
UDDLGDjSxAlVtPN4krt0iVKqDbu1HEmqLibUo/BSYdI6rFs=
-----END CERTIFICATE-----
