Certificate:
    Data:
        Version: 3 (0x2)
        Serial Number: 12 (0xc)
    Signature Algorithm: sha256WithRSAEncryption
        Issuer: CN=estExampleHugeSUDICA.verylongwow.cisco123.404neverexisted.zw2-6
        Validity
            Not Before: Apr 22 18:04:13 2019 GMT
            Not After : Apr  4 18:04:13 2031 GMT
        Subject: CN=estExampleHugeSUDICA.verylongwow.cisco123.404neverexisted.zw2-7
        Subject Public Key Info:
            Public Key Algorithm: rsaEncryption
                Public-Key: (4096 bit)
                Modulus:
                    00:e9:cc:12:e5:f3:84:78:05:66:75:ab:b0:ce:56:
                    57:14:7c:e2:3c:8a:7c:57:a2:31:6a:d7:d6:fb:2d:
                    e0:96:01:15:43:a5:cb:e1:4f:85:64:85:f8:79:8a:
                    44:e9:65:2e:89:b3:e5:00:79:7c:58:2e:52:40:c2:
                    41:ee:84:55:4b:20:53:63:d6:48:6b:31:a7:e6:85:
                    9b:5d:50:c5:a6:5e:f8:9a:11:72:53:e3:76:98:d7:
                    38:e3:81:27:2d:17:f9:8c:0d:92:cf:e4:65:91:4e:
                    bf:21:25:71:41:07:ee:5d:1f:69:e5:d1:d6:2c:d8:
                    17:79:f9:e5:1c:73:5b:33:12:b0:b2:ef:f6:c0:a8:
                    66:24:08:8f:4b:80:ab:e3:ca:d5:da:c3:2a:1b:91:
                    dd:5b:63:5a:70:53:89:2b:02:d0:e6:b5:8e:ef:ed:
                    30:ba:c1:eb:d5:0f:82:91:39:74:58:68:22:4b:bc:
                    5a:af:53:9b:48:cf:9e:4e:4d:d4:b1:fb:6a:44:4c:
                    b6:43:5c:eb:0d:8e:c5:e7:55:4f:db:e0:09:81:a7:
                    9c:fb:e0:dd:ac:a9:d2:9b:f5:67:84:cd:c7:f3:0a:
                    92:a2:70:8e:0a:7a:90:b8:d0:91:6c:e0:68:9b:54:
                    d9:43:2a:30:4b:25:18:07:3a:f7:d3:ab:ae:e6:d7:
                    8b:03:e3:44:b2:9b:c0:a9:f0:3a:4f:7c:6a:02:6d:
                    59:d0:ba:60:c4:33:da:35:fb:5d:6f:0d:d8:ee:83:
                    5a:fd:cc:4e:f9:3a:04:08:13:f7:79:c8:73:26:e1:
                    70:a8:f5:12:d4:a4:9a:17:10:c3:fe:50:45:2d:7f:
                    91:7d:68:85:41:0d:41:41:f6:55:ad:10:07:af:99:
                    3c:75:0e:25:b7:94:2a:66:84:81:70:f8:64:17:09:
                    05:bc:8e:1f:b0:24:55:ef:6b:02:e1:ff:e7:11:41:
                    d3:bb:7a:82:8e:77:bc:e1:89:b0:d1:fc:ef:f4:66:
                    35:7c:b8:93:13:ce:c5:e2:aa:0b:b7:33:40:88:61:
                    25:d5:6e:d2:4a:3c:10:0b:ee:e1:c7:40:31:a4:8b:
                    d2:78:d4:48:75:2e:f1:ea:5e:ba:94:83:b8:04:dd:
                    e8:40:c7:43:53:5d:10:34:34:20:fb:7d:ce:b4:df:
                    71:a1:c6:73:8e:de:8e:ba:92:1a:00:4e:4b:11:de:
                    ad:78:9f:a2:c6:10:f4:5d:f4:05:da:cf:07:ba:e9:
                    62:1b:b7:d8:2d:fd:42:70:d2:2c:e8:7a:f4:13:47:
                    33:22:22:3a:46:80:08:f2:94:38:e3:bd:46:ad:ad:
                    5f:ff:81:d5:06:e7:93:66:4b:e2:b2:db:db:03:62:
                    1e:cd:b1
                Exponent: 65537 (0x10001)
        X509v3 extensions:
            X509v3 Basic Constraints: 
                CA:TRUE
            X509v3 Key Usage: 
                Certificate Sign
            X509v3 CRL Distribution Points: 

                Full Name:
                  URI:http://example.com/crl.pem

            X509v3 Subject Key Identifier: 
                61:F3:1A:BE:94:C1:89:AF:2A:9C:64:D6:2B:20:F2:C4:1C:DA:38:E4
            X509v3 Authority Key Identifier: 
                keyid:36:47:6C:32:E6:D7:19:3F:1C:DC:48:96:15:BA:47:7E:03:0B:26:15

            X509v3 Subject Alternative Name: 
                DNS:yourserverscanthandlecertsofthismagnitude.trap2-6.zw, DNS:whoputthefreakinfrenchfries.404nofreakinfrenchfries2-6.zw, DNS:aintnopacketbigenough.aintnopinglowenought.aintnocertificatehugeenough2-6.zw, DNS:youputthecertinthefiledescriptor.shakedtlsallup2-6.zw, DNS:spidermanspidermandoeswhateveraspidercan.spinsawebanysizecatchesthievesjustlikeflies.spinsawebanysizecatchesthievesjustlikeflies2-6.zw, DNS:itsame-mario-hello-letsago-nightynighty-ahspaghetti-ahravioli-ahhmamamia.herewego.wha-haha-ya-whaa-hoohooooo-whoaaa-yeeuuh-yippeee-solongehbowser-pressstarttoplay-gameover2-6.zw, DNS:thelittlecertthatcould.byrygranger.thereoncewasacertthatdreamedthathecouldbreaktheserver-hekeptgettinglargertitlesuntilonedayhedid2-6.zw
    Signature Algorithm: sha256WithRSAEncryption
         a8:e0:22:3a:9f:80:28:63:85:4e:83:50:61:2a:f7:e6:70:bb:
         78:7a:70:f2:06:cf:62:07:f7:45:4a:e4:c1:3f:a1:2f:af:38:
         69:d3:74:05:36:79:0d:60:cf:38:fb:1c:9d:2c:93:64:ab:f6:
         e4:55:72:6d:c7:82:77:aa:c1:3e:3d:f0:86:1a:43:12:8d:93:
         a0:a2:78:84:cc:83:b1:08:a5:8d:98:77:39:5b:d1:15:68:45:
         9e:5e:8d:ff:57:85:52:43:15:92:3c:18:6f:1b:93:c3:e9:85:
         9a:32:93:50:4f:58:9a:a5:63:2d:c0:df:4c:b0:7c:04:ca:54:
         7d:05:d5:c2:88:63:65:a9:db:19:46:d6:26:a7:c7:3e:45:dc:
         95:c8:c8:5c:52:86:48:b8:e8:54:2d:cd:d5:d7:a8:32:63:b9:
         8c:6e:1a:92:37:7f:c8:3b:a9:6b:e0:6b:f3:7e:d2:29:fc:0b:
         3d:ee:92:89:5c:0f:d9:7f:3a:c1:8a:03:e8:3a:b3:ed:4e:30:
         73:84:8e:08:07:48:9c:d8:34:fe:5d:31:82:1e:b0:2b:ec:4f:
         35:ef:f7:c4:8d:14:94:2a:83:5a:3c:22:ca:e3:98:40:95:9c:
         c8:2d:d5:09:ef:21:0c:b2:5f:ff:91:43:49:75:c0:7a:24:27:
         37:eb:da:9e:c1:e3:56:ac:4f:da:70:89:e3:a6:03:43:0a:fd:
         8c:94:ab:17:6d:05:8a:da:a3:24:81:fe:a6:c1:84:6f:9d:44:
         31:c7:71:c4:fb:75:21:26:93:f9:df:46:96:b5:23:10:af:6a:
         63:51:d5:f9:b1:95:a1:cb:06:23:eb:3c:bb:d1:d5:fd:de:8e:
         ad:ac:e1:8a:05:bd:4d:35:47:22:b7:d4:d4:e1:01:82:ce:b5:
         e6:0c:b9:b9:f2:dd:f4:b3:10:53:05:2c:a7:87:ee:d1:9a:e9:
         b9:9b:3d:cd:4e:3c:97:6a:06:73:30:9f:9f:df:03:5b:49:d8:
         84:d3:cc:e4:7a:40:2c:7f:0a:e5:6f:d1:94:54:15:ab:ba:d5:
         1b:48:d5:65:c9:dd:f9:3c:cc:05:ed:68:b1:b0:ea:b7:a3:ab:
         e0:6e:39:af:5f:4d:6f:d5:a5:b7:ad:dd:77:43:61:9e:3e:ff:
         31:d3:b3:91:cf:6c:4f:cc:f1:a1:0f:2f:25:05:d3:48:aa:13:
         d2:de:d8:00:d8:a4:c8:c8:27:2c:a8:50:02:93:2c:11:3a:91:
         b9:f2:ad:98:4e:6b:2d:6e:74:3a:3f:85:a7:62:91:04:ca:f2:
         5c:6f:9b:91:f3:4e:7e:7d:82:ac:e3:12:d0:3f:ce:49:45:55:
         b7:ba:f9:31:e1:b6:f2:a4
-----BEGIN CERTIFICATE-----
MIIIbDCCBlSgAwIBAgIBDDANBgkqhkiG9w0BAQsFADBKMUgwRgYDVQQDDD9lc3RF
eGFtcGxlSHVnZVNVRElDQS52ZXJ5bG9uZ3dvdy5jaXNjbzEyMy40MDRuZXZlcmV4
aXN0ZWQuencyLTYwHhcNMTkwNDIyMTgwNDEzWhcNMzEwNDA0MTgwNDEzWjBKMUgw
RgYDVQQDDD9lc3RFeGFtcGxlSHVnZVNVRElDQS52ZXJ5bG9uZ3dvdy5jaXNjbzEy
My40MDRuZXZlcmV4aXN0ZWQuencyLTcwggIiMA0GCSqGSIb3DQEBAQUAA4ICDwAw
ggIKAoICAQDpzBLl84R4BWZ1q7DOVlcUfOI8inxXojFq19b7LeCWARVDpcvhT4Vk
hfh5ikTpZS6Js+UAeXxYLlJAwkHuhFVLIFNj1khrMafmhZtdUMWmXviaEXJT43aY
1zjjgSctF/mMDZLP5GWRTr8hJXFBB+5dH2nl0dYs2Bd5+eUcc1szErCy7/bAqGYk
CI9LgKvjytXawyobkd1bY1pwU4krAtDmtY7v7TC6wevVD4KROXRYaCJLvFqvU5tI
z55OTdSx+2pETLZDXOsNjsXnVU/b4AmBp5z74N2sqdKb9WeEzcfzCpKicI4KepC4
0JFs4GibVNlDKjBLJRgHOvfTq67m14sD40Sym8Cp8DpPfGoCbVnQumDEM9o1+11v
Ddjug1r9zE75OgQIE/d5yHMm4XCo9RLUpJoXEMP+UEUtf5F9aIVBDUFB9lWtEAev
mTx1DiW3lCpmhIFw+GQXCQW8jh+wJFXvawLh/+cRQdO7eoKOd7zhibDR/O/0ZjV8
uJMTzsXiqgu3M0CIYSXVbtJKPBAL7uHHQDGki9J41Eh1LvHqXrqUg7gE3ehAx0NT
XRA0NCD7fc6033GhxnOO3o66khoATksR3q14n6LGEPRd9AXazwe66WIbt9gt/UJw
0izoevQTRzMiIjpGgAjylDjjvUatrV//gdUG55NmS+Ky29sDYh7NsQIDAQABo4ID
WzCCA1cwDAYDVR0TBAUwAwEB/zALBgNVHQ8EBAMCAgQwKwYDVR0fBCQwIjAgoB6g
HIYaaHR0cDovL2V4YW1wbGUuY29tL2NybC5wZW0wHQYDVR0OBBYEFGHzGr6UwYmv
Kpxk1isg8sQc2jjkMB8GA1UdIwQYMBaAFDZHbDLm1xk/HNxIlhW6R34DCyYVMIIC
ywYDVR0RBIICwjCCAr6CNHlvdXJzZXJ2ZXJzY2FudGhhbmRsZWNlcnRzb2Z0aGlz
bWFnbml0dWRlLnRyYXAyLTYueneCOXdob3B1dHRoZWZyZWFraW5mcmVuY2hmcmll
cy40MDRub2ZyZWFraW5mcmVuY2hmcmllczItNi56d4JMYWludG5vcGFja2V0Ymln
ZW5vdWdoLmFpbnRub3Bpbmdsb3dlbm91Z2h0LmFpbnRub2NlcnRpZmljYXRlaHVn
ZWVub3VnaDItNi56d4I1eW91cHV0dGhlY2VydGludGhlZmlsZWRlc2NyaXB0b3Iu
c2hha2VkdGxzYWxsdXAyLTYueneCgYZzcGlkZXJtYW5zcGlkZXJtYW5kb2Vzd2hh
dGV2ZXJhc3BpZGVyY2FuLnNwaW5zYXdlYmFueXNpemVjYXRjaGVzdGhpZXZlc2p1
c3RsaWtlZmxpZXMuc3BpbnNhd2ViYW55c2l6ZWNhdGNoZXN0aGlldmVzanVzdGxp
a2VmbGllczItNi56d4KBsWl0c2FtZS1tYXJpby1oZWxsby1sZXRzYWdvLW5pZ2h0
eW5pZ2h0eS1haHNwYWdoZXR0aS1haHJhdmlvbGktYWhobWFtYW1pYS5oZXJld2Vn
by53aGEtaGFoYS15YS13aGFhLWhvb2hvb29vby13aG9hYWEteWVldXVoLXlpcHBl
ZWUtc29sb25nZWhib3dzZXItcHJlc3NzdGFydHRvcGxheS1nYW1lb3ZlcjItNi56
d4KBiHRoZWxpdHRsZWNlcnR0aGF0Y291bGQuYnlyeWdyYW5nZXIudGhlcmVvbmNl
d2FzYWNlcnR0aGF0ZHJlYW1lZHRoYXRoZWNvdWxkYnJlYWt0aGVzZXJ2ZXItaGVr
ZXB0Z2V0dGluZ2xhcmdlcnRpdGxlc3VudGlsb25lZGF5aGVkaWQyLTYuencwDQYJ
KoZIhvcNAQELBQADggIBAKjgIjqfgChjhU6DUGEq9+Zwu3h6cPIGz2IH90VK5ME/
oS+vOGnTdAU2eQ1gzzj7HJ0sk2Sr9uRVcm3HgneqwT498IYaQxKNk6CieITMg7EI
pY2Ydzlb0RVoRZ5ejf9XhVJDFZI8GG8bk8PphZoyk1BPWJqlYy3A30ywfATKVH0F
1cKIY2Wp2xlG1ianxz5F3JXIyFxShki46FQtzdXXqDJjuYxuGpI3f8g7qWvga/N+
0in8Cz3ukolcD9l/OsGKA+g6s+1OMHOEjggHSJzYNP5dMYIesCvsTzXv98SNFJQq
g1o8IsrjmECVnMgt1QnvIQyyX/+RQ0l1wHokJzfr2p7B41asT9pwieOmA0MK/YyU
qxdtBYraoySB/qbBhG+dRDHHccT7dSEmk/nfRpa1IxCvamNR1fmxlaHLBiPrPLvR
1f3ejq2s4YoFvU01RyK31NThAYLOteYMubny3fSzEFMFLKeH7tGa6bmbPc1OPJdq
BnMwn5/fA1tJ2ITTzOR6QCx/CuVv0ZRUFau61RtI1WXJ3fk8zAXtaLGw6rejq+Bu
Oa9fTW/Vpbet3XdDYZ4+/zHTs5HPbE/M8aEPLyUF00iqE9Le2ADYpMjIJyyoUAKT
LBE6kbnyrZhOay1udDo/hadikQTK8lxvm5HzTn59gqzjEtA/zklFVbe6+THhtvKk
-----END CERTIFICATE-----
