Certificate:
    Data:
        Version: 3 (0x2)
        Serial Number: 13 (0xd)
    Signature Algorithm: sha256WithRSAEncryption
        Issuer: CN=estExampleHugeSUDICA.verylongwow.cisco123.404neverexisted.zw2-7
        Validity
            Not Before: Apr 22 18:04:14 2019 GMT
            Not After : Apr  4 18:04:14 2031 GMT
        Subject: CN=127.0.0.1
        Subject Public Key Info:
            Public Key Algorithm: rsaEncryption
                Public-Key: (4096 bit)
                Modulus:
                    00:d9:9d:69:00:e7:cf:a8:0f:e7:3c:3f:28:c6:2c:
                    50:b8:18:5f:f8:b6:34:1b:6b:4a:6a:42:fe:bb:d5:
                    80:5c:e7:e0:0c:3b:61:bb:31:bf:35:77:ba:78:48:
                    86:66:92:cc:42:b2:4a:68:a0:43:8b:7a:75:11:88:
                    1f:e0:f0:0a:1d:0f:34:2d:19:ee:c0:7e:12:a1:8c:
                    f5:21:f2:92:43:b5:9e:d7:ce:38:3a:3a:3c:b6:d6:
                    38:f5:f8:2d:1e:f1:6f:f4:e3:8f:06:17:31:60:99:
                    32:5b:15:1a:8f:49:d7:a2:c8:dc:77:b1:06:69:9b:
                    15:76:f9:ab:7c:70:51:66:37:c5:36:fd:49:f4:64:
                    5e:f7:6a:32:3e:20:fa:2c:59:2d:15:b4:1c:c2:bd:
                    88:1e:36:51:a3:fb:0a:81:1a:45:27:58:ca:d8:c2:
                    33:6d:52:17:1f:69:a1:66:e9:7d:83:5f:60:4c:72:
                    36:8b:8f:a4:56:e1:da:e1:e9:b3:85:a7:33:17:42:
                    96:44:c3:f0:ef:c4:7e:92:d1:22:6e:22:9e:5a:c4:
                    33:55:8e:55:48:63:10:77:a0:44:db:b9:2a:65:42:
                    6a:85:ce:7e:90:61:4d:37:68:b5:0c:76:d0:d9:5d:
                    61:45:db:17:95:f6:b4:e0:de:0e:43:12:28:51:29:
                    55:e3:ae:25:41:f3:f6:4a:16:73:dd:cc:5a:42:85:
                    20:d7:d8:e8:23:c7:c4:ec:6b:74:d2:76:97:a6:d8:
                    6b:31:39:42:2f:25:82:02:02:0c:2d:cf:2b:55:f4:
                    46:36:0f:e4:c7:84:87:ab:64:b9:a7:5f:22:01:39:
                    f9:b7:d4:dc:38:f1:d1:d4:39:18:39:c1:eb:cc:50:
                    27:33:0c:99:37:da:9a:f9:86:25:51:dd:32:b5:ae:
                    b4:ec:e4:5d:cc:6f:e4:c1:20:9d:5a:2b:71:4b:60:
                    b6:ac:48:41:84:d6:91:3f:f2:14:6c:28:70:eb:15:
                    81:1d:b4:e5:d7:a8:e8:f8:83:fe:6e:d9:c6:be:ba:
                    cf:a2:cb:72:62:e0:61:25:6a:3e:25:e2:80:e0:cd:
                    b6:f7:5e:68:43:fc:56:c9:23:6a:7e:c0:71:c8:12:
                    81:cf:fa:cc:9f:6d:ce:1c:47:73:1b:fc:af:43:b3:
                    9b:a5:9c:b5:6b:7c:d7:f6:8d:ee:c5:2c:b2:bf:00:
                    3f:52:66:09:0a:dd:c0:5a:5d:17:e7:68:f6:75:c2:
                    43:78:5d:04:83:81:99:f4:c8:1b:3b:2a:61:65:cb:
                    e4:73:78:d0:13:4e:96:2c:46:21:da:31:97:d3:e8:
                    9c:7e:58:60:68:8a:1f:47:f1:b6:ff:c8:91:9f:77:
                    ec:57:e5
                Exponent: 65537 (0x10001)
        X509v3 extensions:
            X509v3 Basic Constraints: 
                CA:FALSE
            X509v3 Key Usage: 
                Digital Signature, Non Repudiation, Key Encipherment
            X509v3 Subject Alternative Name: 
                DNS:localhost, DNS:ip6-localhost, IP Address:127.0.0.1, IP Address:0:0:0:0:0:0:0:1
            X509v3 CRL Distribution Points: 

                Full Name:
                  URI:http://example.com/crl.pem

    Signature Algorithm: sha256WithRSAEncryption
         b4:43:41:d1:64:e7:43:5e:52:a2:67:10:89:3b:4d:27:4c:65:
         2a:ba:df:69:05:58:b4:da:19:c5:c7:95:8f:71:65:e4:95:0a:
         e8:71:e4:85:20:c7:ac:c3:d0:f6:b3:48:a6:84:f7:60:f7:6e:
         d5:6a:8d:b2:7c:52:c0:b4:f2:87:b0:e6:eb:80:3d:b9:9d:d5:
         da:e2:86:8d:30:a0:6d:81:d9:a7:c7:82:55:01:b7:18:4b:49:
         0b:7a:f2:59:75:27:91:99:79:57:09:ed:6a:da:ff:7a:0e:d6:
         b1:0c:0a:1d:73:b2:04:d6:70:f6:19:ab:41:f2:c4:23:3e:f5:
         d8:06:c1:30:d3:44:fb:fa:df:8c:ff:dd:63:86:a2:b4:41:c4:
         34:59:7b:9c:2b:c4:1b:4c:ef:48:6b:18:64:46:c5:b0:df:99:
         01:23:37:fd:46:85:a1:e5:17:cc:44:78:1a:16:98:c1:d5:b4:
         82:65:e3:01:d5:6d:e1:85:a6:ef:f4:65:2e:57:9f:d1:77:a0:
         5d:52:1c:0f:8c:f0:17:be:e2:68:65:fb:48:c0:51:b6:c5:8d:
         b5:a9:70:0d:cf:9a:b5:e5:d4:2a:7a:44:37:98:49:76:06:5f:
         87:82:6c:d8:3c:27:1d:6e:1a:86:64:fe:74:8f:af:73:ba:b1:
         32:01:94:44:52:be:2e:dd:c5:22:95:fa:d5:9b:14:03:b3:11:
         b4:30:20:ae:8f:aa:55:91:a9:b8:f2:cd:5a:7e:0f:b9:5c:fd:
         9a:73:25:aa:50:65:e1:4b:0e:0b:df:18:0c:a1:4f:b0:4e:e0:
         f3:be:2b:02:c0:97:ed:d3:97:12:65:e1:74:9b:f1:79:49:35:
         23:ca:7c:a9:c0:15:f7:ad:97:9d:f2:45:fa:7f:bf:c9:67:f1:
         ed:44:4b:7a:0b:1a:23:0e:ad:bd:79:10:da:b8:f9:4d:88:91:
         7a:f6:80:cf:2e:aa:1f:83:47:cb:4a:1e:e2:72:a1:c4:ae:60:
         49:45:f2:8d:a6:d8:20:ef:fa:e4:12:57:de:fc:a1:ad:96:15:
         bd:10:d1:14:b6:b9:02:19:5d:a4:4f:46:37:41:b9:b8:49:88:
         94:9b:3f:4f:36:db:16:c7:4b:35:4d:a0:f9:b4:71:50:2a:f9:
         73:e1:4e:85:74:cf:c6:e9:d9:5e:f2:95:66:f4:71:9e:a6:85:
         a8:b9:fd:23:a1:a1:89:0a:0a:5c:ef:0c:9e:a1:25:ce:28:ae:
         66:ba:87:e8:77:af:9d:0a:62:ba:9a:b0:d1:c0:06:9a:d7:8d:
         69:93:37:1f:24:2a:a0:41:c3:57:17:7b:14:04:f0:7a:bf:83:
         44:1a:a4:49:71:2b:fe:a0
-----BEGIN CERTIFICATE-----
MIIFXzCCA0egAwIBAgIBDTANBgkqhkiG9w0BAQsFADBKMUgwRgYDVQQDDD9lc3RF
eGFtcGxlSHVnZVNVRElDQS52ZXJ5bG9uZ3dvdy5jaXNjbzEyMy40MDRuZXZlcmV4
aXN0ZWQuencyLTcwHhcNMTkwNDIyMTgwNDE0WhcNMzEwNDA0MTgwNDE0WjAUMRIw
EAYDVQQDDAkxMjcuMC4wLjEwggIiMA0GCSqGSIb3DQEBAQUAA4ICDwAwggIKAoIC
AQDZnWkA58+oD+c8PyjGLFC4GF/4tjQba0pqQv671YBc5+AMO2G7Mb81d7p4SIZm
ksxCskpooEOLenURiB/g8AodDzQtGe7AfhKhjPUh8pJDtZ7Xzjg6Ojy21jj1+C0e
8W/0448GFzFgmTJbFRqPSdeiyNx3sQZpmxV2+at8cFFmN8U2/Un0ZF73ajI+IPos
WS0VtBzCvYgeNlGj+wqBGkUnWMrYwjNtUhcfaaFm6X2DX2BMcjaLj6RW4drh6bOF
pzMXQpZEw/DvxH6S0SJuIp5axDNVjlVIYxB3oETbuSplQmqFzn6QYU03aLUMdtDZ
XWFF2xeV9rTg3g5DEihRKVXjriVB8/ZKFnPdzFpChSDX2Ogjx8Tsa3TSdpem2Gsx
OUIvJYICAgwtzytV9EY2D+THhIerZLmnXyIBOfm31Nw48dHUORg5wevMUCczDJk3
2pr5hiVR3TK1rrTs5F3Mb+TBIJ1aK3FLYLasSEGE1pE/8hRsKHDrFYEdtOXXqOj4
g/5u2ca+us+iy3Ji4GElaj4l4oDgzbb3XmhD/FbJI2p+wHHIEoHP+syfbc4cR3Mb
/K9Ds5ulnLVrfNf2je7FLLK/AD9SZgkK3cBaXRfnaPZ1wkN4XQSDgZn0yBs7KmFl
y+RzeNATTpYsRiHaMZfT6Jx+WGBoih9H8bb/yJGfd+xX5QIDAQABo4GFMIGCMAkG
A1UdEwQCMAAwCwYDVR0PBAQDAgXgMDsGA1UdEQQ0MDKCCWxvY2FsaG9zdIINaXA2
LWxvY2FsaG9zdIcEfwAAAYcQAAAAAAAAAAAAAAAAAAAAATArBgNVHR8EJDAiMCCg
HqAchhpodHRwOi8vZXhhbXBsZS5jb20vY3JsLnBlbTANBgkqhkiG9w0BAQsFAAOC
AgEAtENB0WTnQ15SomcQiTtNJ0xlKrrfaQVYtNoZxceVj3Fl5JUK6HHkhSDHrMPQ
9rNIpoT3YPdu1WqNsnxSwLTyh7Dm64A9uZ3V2uKGjTCgbYHZp8eCVQG3GEtJC3ry
WXUnkZl5Vwntatr/eg7WsQwKHXOyBNZw9hmrQfLEIz712AbBMNNE+/rfjP/dY4ai
tEHENFl7nCvEG0zvSGsYZEbFsN+ZASM3/UaFoeUXzER4GhaYwdW0gmXjAdVt4YWm
7/RlLlef0XegXVIcD4zwF77iaGX7SMBRtsWNtalwDc+ateXUKnpEN5hJdgZfh4Js
2DwnHW4ahmT+dI+vc7qxMgGURFK+Lt3FIpX61ZsUA7MRtDAgro+qVZGpuPLNWn4P
uVz9mnMlqlBl4UsOC98YDKFPsE7g874rAsCX7dOXEmXhdJvxeUk1I8p8qcAV962X
nfJF+n+/yWfx7URLegsaIw6tvXkQ2rj5TYiRevaAzy6qH4NHy0oe4nKhxK5gSUXy
jabYIO/65BJX3vyhrZYVvRDRFLa5AhldpE9GN0G5uEmIlJs/TzbbFsdLNU2g+bRx
UCr5c+FOhXTPxunZXvKVZvRxnqaFqLn9I6GhiQoKXO8MnqElziiuZrqH6HevnQpi
upqw0cAGmteNaZM3HyQqoEHDVxd7FATwer+DRBqkSXEr/qA=
-----END CERTIFICATE-----
