Certificate:
    Data:
        Version: 3 (0x2)
        Serial Number: 1 (0x1)
    Signature Algorithm: ecdsa-with-SHA256
        Issuer: CN=MASA_CA
        Validity
            Not Before: Jun 16 01:45:45 2020 GMT
            Not After : Jun 16 01:45:45 2021 GMT
        Subject: CN=www.iotrus.com/serialNumber=IOTRUS-0123456789
        Subject Public Key Info:
            Public Key Algorithm: rsaEncryption
                Public-Key: (2048 bit)
                Modulus:
                    00:a8:3d:3e:f7:ce:fa:a0:1f:8f:89:96:65:a7:62:
                    ba:32:9a:56:e7:06:5e:bc:15:07:b3:9f:6e:46:30:
                    a0:6a:78:e1:1c:9f:6f:6f:ec:49:43:0e:c5:eb:77:
                    9b:5c:45:ac:66:04:5c:ab:93:27:27:05:13:18:30:
                    7f:8c:d1:7d:fc:7a:0b:42:22:4a:53:46:33:e3:72:
                    66:91:bc:2f:90:6e:aa:89:e2:93:93:49:2a:5c:36:
                    ca:be:7a:ec:98:96:9c:64:48:80:c6:64:0f:dd:02:
                    de:e5:32:bb:35:54:de:67:e3:33:56:8b:12:ac:57:
                    42:20:28:d7:31:17:06:3b:04:a0:90:bf:4d:18:d9:
                    dc:ad:f3:21:ee:a8:f8:3c:3c:22:bd:81:e9:0f:62:
                    d4:d7:25:b4:f4:50:4c:5d:07:b6:7c:19:44:29:ab:
                    15:74:04:8a:b3:6a:d3:bf:d4:83:d1:eb:8a:83:38:
                    f6:0c:5c:19:6d:b1:ce:bf:bb:59:27:1c:ad:c0:1a:
                    51:5f:70:4f:ee:c4:2f:2b:7a:0a:5f:e1:59:2b:69:
                    8b:61:e3:4a:03:52:cf:af:01:83:f1:9e:3c:84:31:
                    e9:66:20:9c:c1:7c:b5:0f:14:a2:bb:22:46:f1:68:
                    35:7e:10:44:c1:e7:2a:dc:ac:ce:f0:80:a2:3e:45:
                    c5:53
                Exponent: 65537 (0x10001)
        X509v3 extensions:
            X509v3 Basic Constraints: 
                CA:TRUE
            X509v3 Subject Key Identifier: 
                CA:16:45:71:26:56:37:B9:65:27:D3:51:95:32:4A:32:FD:DA:E5:8F
    Signature Algorithm: ecdsa-with-SHA256
         30:45:02:21:00:bc:27:a3:74:ce:79:5f:50:c6:b4:67:f7:7d:
         51:ef:d4:4b:bb:e7:4c:12:73:50:55:c9:21:cc:a5:20:02:a7:
         50:02:20:00:9d:13:47:58:c8:81:c1:ef:5f:03:5e:00:9b:f8:
         24:04:32:6d:ed:e0:d5:f1:c1:33:2c:8d:84:e3:ec:96:1e
-----BEGIN CERTIFICATE-----
MIICMDCCAdagAwIBAgIBATAKBggqhkjOPQQDAjASMRAwDgYDVQQDDAdNQVNBX0NB
MB4XDTIwMDYxNjAxNDU0NVoXDTIxMDYxNjAxNDU0NVowNTEXMBUGA1UEAwwOd3d3
LmlvdHJ1cy5jb20xGjAYBgNVBAUTEUlPVFJVUy0wMTIzNDU2Nzg5MIIBIjANBgkq
hkiG9w0BAQEFAAOCAQ8AMIIBCgKCAQEAqD0+9876oB+PiZZlp2K6MppW5wZevBUH
s59uRjCganjhHJ9vb+xJQw7F63ebXEWsZgRcq5MnJwUTGDB/jNF9/HoLQiJKU0Yz
43JmkbwvkG6qieKTk0kqXDbKvnrsmJacZEiAxmQP3QLe5TK7NVTeZ+MzVosSrFdC
ICjXMRcGOwSgkL9NGNncrfMh7qj4PDwivYHpD2LU1yW09FBMXQe2fBlEKasVdASK
s2rTv9SD0euKgzj2DFwZbbHOv7tZJxytwBpRX3BP7sQvK3oKX+FZK2mLYeNKA1LP
rwGD8Z48hDHpZiCcwXy1DxSiuyJG8Wg1fhBEwecq3KzO8ICiPkXFUwIDAQABoy8w
LTAMBgNVHRMEBTADAQH/MB0GA1UdDgQWBBTKFkVxJlY3uWUn01GVMkoy/drljzAK
BggqhkjOPQQDAgNIADBFAiEAvCejdM55X1DGtGf3fVHv1Eu750wSc1BVySHMpSAC
p1ACIACdE0dYyIHB718DXgCb+CQEMm3t4NXxwTMsjYTj7JYe
-----END CERTIFICATE-----
