Certificate:
    Data:
        Version: 3 (0x2)
        Serial Number: 6 (0x6)
    Signature Algorithm: ecdsa-with-SHA1
        Issuer: CN=estExampleCA
        Validity
            Not Before: Jul  2 17:33:45 2013 GMT
            Not After : Jul  2 17:33:45 2014 GMT
        Subject: CN=revoked-cert-test
        Subject Public Key Info:
            Public Key Algorithm: id-ecPublicKey
                Public-Key: (256 bit)
                pub: 
                    04:aa:2d:4b:3b:6f:1f:b3:39:64:fe:41:73:56:6f:
                    8c:fb:40:29:20:0d:b1:51:3c:1b:cd:af:50:01:b1:
                    a9:c9:2f:b6:2c:a3:b3:f6:d8:da:6e:4a:37:e9:60:
                    6b:25:1d:49:bf:f1:e8:0b:a4:c1:56:80:ec:b8:55:
                    b6:87:ca:9b:03
                ASN1 OID: prime256v1
        X509v3 extensions:
            X509v3 Basic Constraints: 
                CA:FALSE
            X509v3 Subject Key Identifier: 
                8B:E8:5A:FA:80:34:AF:ED:C3:03:4D:D8:5F:6B:7C:CB:1E:01:C7:69
            X509v3 Authority Key Identifier: 
                keyid:66:E5:56:CA:93:2B:02:0B:57:A4:D4:E2:ED:5F:CA:A4:EE:7D:83:F9

    Signature Algorithm: ecdsa-with-SHA1
         30:45:02:21:00:f7:c9:92:ec:ee:a9:38:d0:01:ab:54:5b:07:
         c4:e0:d0:dc:09:36:95:7a:ab:13:c5:74:80:60:0a:67:a0:51:
         ef:02:20:4c:17:99:f4:cf:3a:b3:dc:0a:92:3d:4f:9f:55:a1:
         91:44:76:ca:83:5f:dd:a4:bc:fd:12:d8:35:61:df:69:af
-----BEGIN CERTIFICATE-----
MIIBbTCCARSgAwIBAgIBBjAJBgcqhkjOPQQBMBcxFTATBgNVBAMTDGVzdEV4YW1w
bGVDQTAeFw0xMzA3MDIxNzMzNDVaFw0xNDA3MDIxNzMzNDVaMBwxGjAYBgNVBAMM
EXJldm9rZWQtY2VydC10ZXN0MFkwEwYHKoZIzj0CAQYIKoZIzj0DAQcDQgAEqi1L
O28fszlk/kFzVm+M+0ApIA2xUTwbza9QAbGpyS+2LKOz9tjabko36WBrJR1Jv/Ho
C6TBVoDsuFW2h8qbA6NNMEswCQYDVR0TBAIwADAdBgNVHQ4EFgQUi+ha+oA0r+3D
A03YX2t8yx4Bx2kwHwYDVR0jBBgwFoAUZuVWypMrAgtXpNTi7V/KpO59g/kwCQYH
KoZIzj0EAQNIADBFAiEA98mS7O6pONABq1RbB8Tg0NwJNpV6qxPFdIBgCmegUe8C
IEwXmfTPOrPcCpI9T59VoZFEdsqDX92kvP0S2DVh32mv
-----END CERTIFICATE-----
