Certificate:
    Data:
        Version: 3 (0x2)
        Serial Number: 13 (0xd)
        Signature Algorithm: sha256WithRSAEncryption
        Issuer: CN=estExampleHugeSUDICA.verylongwow.cisco123.404neverexisted.z2-7
        Validity
            Not Before: Jan 22 13:40:50 2020 GMT
            Not After : Jan 22 13:40:50 2040 GMT
        Subject: CN=127.0.0.1
        Subject Public Key Info:
            Public Key Algorithm: rsaEncryption
                RSA Public-Key: (4096 bit)
                Modulus:
                    00:e2:4a:93:3d:94:23:28:04:c3:80:2f:cf:41:8f:
                    62:71:e6:35:44:a0:61:16:0e:6a:0f:19:09:6c:d9:
                    db:91:55:35:4e:28:85:f4:e9:e2:9c:e9:60:09:c0:
                    5a:ba:0d:e3:cd:5d:c7:75:35:50:68:4a:55:48:97:
                    33:d3:4e:f3:9c:3c:9a:4d:0e:03:0d:71:cb:b5:da:
                    c8:76:02:3a:2a:4d:fc:4d:5c:4f:1f:97:8b:63:8c:
                    68:25:34:23:e8:0b:a0:cb:14:5e:dd:d5:8d:47:f3:
                    9c:9e:81:90:a9:20:8b:d2:b2:f8:c3:d8:e7:5d:b0:
                    fc:7e:58:2f:08:7b:83:75:fb:24:73:59:34:d7:0b:
                    01:3e:e8:2e:80:fb:88:fb:6d:6b:9c:60:4b:27:7b:
                    8b:97:2f:3f:af:07:49:26:52:f8:4b:d8:b8:26:f7:
                    6c:b9:7c:27:f8:d5:50:8a:cc:20:3d:29:83:76:56:
                    97:b6:ff:25:9d:ad:b7:c8:0e:d1:e7:dc:50:20:b4:
                    c9:c5:65:a5:2e:da:13:5d:b4:34:24:e2:92:a9:fb:
                    6a:c8:66:b3:28:78:97:64:7f:f5:33:3e:80:bc:d1:
                    ba:6c:4d:ad:31:c4:34:73:39:d3:9f:5b:d5:cd:43:
                    85:1c:18:36:2b:41:2a:cf:76:fd:30:34:8c:36:6c:
                    5b:93:75:db:c7:c2:5c:32:76:d5:67:04:16:b5:01:
                    1d:dc:00:2e:ed:8d:1e:53:6c:d2:85:84:37:28:0c:
                    4b:6f:14:57:ca:81:cd:49:50:b3:7c:50:99:c1:2a:
                    99:91:dc:0d:57:6b:ef:cd:14:b8:a4:e1:d0:15:ac:
                    03:56:44:77:1b:82:6e:33:45:6a:45:17:ee:a2:11:
                    f8:4d:ad:5a:3e:7c:42:59:ef:1a:b2:bf:a1:53:bf:
                    a6:3d:19:22:92:18:48:84:2d:e6:53:c9:64:02:20:
                    3e:eb:3f:ad:c3:c5:2c:36:7c:84:23:9c:07:9e:dd:
                    71:05:f1:3c:85:c1:bb:f0:78:f3:50:b7:de:a0:d1:
                    9b:47:56:11:d9:9a:ca:a4:94:1d:74:8c:15:c6:6f:
                    1c:88:53:35:0d:38:55:24:ed:e9:85:2e:04:1f:da:
                    dc:29:dd:41:e8:8a:0b:93:ab:fa:1f:70:d9:54:cb:
                    2b:f1:86:ad:f9:54:71:e0:da:9f:fb:8a:4d:ce:a9:
                    8e:1a:5f:a5:98:6a:1c:bb:27:4f:90:5b:21:2d:53:
                    d7:de:5c:87:59:c8:ba:9d:c3:dc:2e:de:1a:b7:5b:
                    3e:f4:b9:a1:72:20:8a:2e:6d:c6:3e:e0:8d:63:91:
                    c5:1b:61:f0:d9:fb:50:5f:e2:9a:d7:2c:7a:35:b2:
                    ff:a9:1f
                Exponent: 65537 (0x10001)
        X509v3 extensions:
            X509v3 Basic Constraints: 
                CA:FALSE
            X509v3 Key Usage: 
                Digital Signature, Non Repudiation, Key Encipherment
            X509v3 Subject Alternative Name: 
                DNS:localhost, DNS:ip6-localhost, IP Address:127.0.0.1, IP Address:0:0:0:0:0:0:0:1
            X509v3 CRL Distribution Points: 

                Full Name:
                  URI:http://example.com/crl.pem

    Signature Algorithm: sha256WithRSAEncryption
         42:35:da:48:4b:6f:97:ea:e7:10:7d:19:d2:b4:10:47:01:15:
         1c:18:b6:0a:2a:0f:fa:87:e9:08:4a:9c:de:77:6d:75:e3:67:
         dc:7d:c1:1f:f2:39:d2:99:0b:38:30:3b:b5:99:9f:ab:87:5e:
         3f:0d:1b:5e:18:46:4c:95:0e:39:44:43:d1:97:76:67:2e:32:
         e4:42:95:5f:a6:8c:b4:77:c5:69:09:84:fa:1a:2c:0f:9a:65:
         20:70:b2:c8:4a:39:2b:86:6a:75:25:fe:b0:e2:a6:b7:a1:26:
         26:73:14:3d:67:00:0f:10:fe:40:a5:c6:4f:23:7e:7d:63:02:
         8b:86:92:5a:6a:2f:b2:75:c1:a8:1c:71:0e:8c:4f:0c:3e:0a:
         a4:25:98:e0:e9:f4:7c:a4:3f:cf:9d:8a:07:80:03:a7:90:76:
         15:8a:08:b5:3d:91:34:11:a5:5d:52:74:92:83:03:e7:37:0f:
         38:11:78:a2:26:38:c4:27:21:c8:c0:18:47:b4:33:19:75:ce:
         6a:a7:e3:e2:64:6b:1d:cf:ff:b6:23:0f:4e:0e:ce:dc:e0:d2:
         69:14:31:0d:1e:f1:95:7a:5c:09:20:f3:39:10:be:ce:02:f0:
         6f:5c:e6:0f:99:98:28:12:bc:60:f0:14:6c:59:a5:a0:b7:99:
         34:ac:17:55:05:8d:48:75:79:57:17:eb:75:dc:15:2f:cb:25:
         fd:22:1e:7b:4e:60:29:93:24:4e:67:1a:a0:60:0d:81:f6:fd:
         e4:20:24:41:31:fd:c6:35:28:d9:7c:d6:e5:44:9a:a1:ad:fa:
         b4:af:bf:c5:4a:44:c8:c6:cd:1d:16:2e:2d:02:31:a4:14:87:
         5c:b6:e8:fa:28:fc:b0:95:fd:4d:23:6c:44:75:06:be:ab:63:
         47:ed:86:ee:b6:e3:10:69:c3:ce:6f:73:26:42:20:37:79:1b:
         66:5f:7a:11:1d:bb:90:fd:8d:81:1a:e6:cb:04:17:14:73:f0:
         36:6b:f6:60:30:60:d1:d7:bc:4f:90:f2:ce:e0:1d:e5:d8:17:
         56:77:30:83:a6:17:6d:57:2c:67:cf:bf:d0:85:d4:4f:11:28:
         a4:ed:f4:1f:ed:b1:b1:2f:fd:f7:05:f9:e7:03:df:b0:74:92:
         6b:55:cd:b7:94:00:c9:fb:a2:ad:98:fb:e0:c1:c6:c1:98:b7:
         46:03:59:78:65:ba:0b:35:c8:f0:d3:fc:de:3b:f7:46:9f:9a:
         af:8d:33:fc:4b:64:60:a0:fc:53:34:87:db:a5:2d:b1:6b:d0:
         16:50:12:6f:47:a3:95:c3:8f:98:9c:30:82:94:11:03:90:f3:
         cb:9b:5c:33:db:cb:5c:86
-----BEGIN CERTIFICATE-----
MIIFXjCCA0agAwIBAgIBDTANBgkqhkiG9w0BAQsFADBJMUcwRQYDVQQDDD5lc3RF
eGFtcGxlSHVnZVNVRElDQS52ZXJ5bG9uZ3dvdy5jaXNjbzEyMy40MDRuZXZlcmV4
aXN0ZWQuejItNzAeFw0yMDAxMjIxMzQwNTBaFw00MDAxMjIxMzQwNTBaMBQxEjAQ
BgNVBAMMCTEyNy4wLjAuMTCCAiIwDQYJKoZIhvcNAQEBBQADggIPADCCAgoCggIB
AOJKkz2UIygEw4Avz0GPYnHmNUSgYRYOag8ZCWzZ25FVNU4ohfTp4pzpYAnAWroN
481dx3U1UGhKVUiXM9NO85w8mk0OAw1xy7XayHYCOipN/E1cTx+Xi2OMaCU0I+gL
oMsUXt3VjUfznJ6BkKkgi9Ky+MPY512w/H5YLwh7g3X7JHNZNNcLAT7oLoD7iPtt
a5xgSyd7i5cvP68HSSZS+EvYuCb3bLl8J/jVUIrMID0pg3ZWl7b/JZ2tt8gO0efc
UCC0ycVlpS7aE120NCTikqn7ashmsyh4l2R/9TM+gLzRumxNrTHENHM5059b1c1D
hRwYNitBKs92/TA0jDZsW5N128fCXDJ21WcEFrUBHdwALu2NHlNs0oWENygMS28U
V8qBzUlQs3xQmcEqmZHcDVdr780UuKTh0BWsA1ZEdxuCbjNFakUX7qIR+E2tWj58
QlnvGrK/oVO/pj0ZIpIYSIQt5lPJZAIgPus/rcPFLDZ8hCOcB57dcQXxPIXBu/B4
81C33qDRm0dWEdmayqSUHXSMFcZvHIhTNQ04VSTt6YUuBB/a3CndQeiKC5Or+h9w
2VTLK/GGrflUceDan/uKTc6pjhpfpZhqHLsnT5BbIS1T195ch1nIup3D3C7eGrdb
PvS5oXIgii5txj7gjWORxRth8Nn7UF/imtcsejWy/6kfAgMBAAGjgYUwgYIwCQYD
VR0TBAIwADALBgNVHQ8EBAMCBeAwOwYDVR0RBDQwMoIJbG9jYWxob3N0gg1pcDYt
bG9jYWxob3N0hwR/AAABhxAAAAAAAAAAAAAAAAAAAAABMCsGA1UdHwQkMCIwIKAe
oByGGmh0dHA6Ly9leGFtcGxlLmNvbS9jcmwucGVtMA0GCSqGSIb3DQEBCwUAA4IC
AQBCNdpIS2+X6ucQfRnStBBHARUcGLYKKg/6h+kISpzed21142fcfcEf8jnSmQs4
MDu1mZ+rh14/DRteGEZMlQ45REPRl3ZnLjLkQpVfpoy0d8VpCYT6GiwPmmUgcLLI
Sjkrhmp1Jf6w4qa3oSYmcxQ9ZwAPEP5ApcZPI359YwKLhpJaai+ydcGoHHEOjE8M
PgqkJZjg6fR8pD/PnYoHgAOnkHYVigi1PZE0EaVdUnSSgwPnNw84EXiiJjjEJyHI
wBhHtDMZdc5qp+PiZGsdz/+2Iw9ODs7c4NJpFDENHvGVelwJIPM5EL7OAvBvXOYP
mZgoErxg8BRsWaWgt5k0rBdVBY1IdXlXF+t13BUvyyX9Ih57TmApkyROZxqgYA2B
9v3kICRBMf3GNSjZfNblRJqhrfq0r7/FSkTIxs0dFi4tAjGkFIdctuj6KPywlf1N
I2xEdQa+q2NH7YbutuMQacPOb3MmQiA3eRtmX3oRHbuQ/Y2BGubLBBcUc/A2a/Zg
MGDR17xPkPLO4B3l2BdWdzCDphdtVyxnz7/QhdRPESik7fQf7bGxL/33BfnnA9+w
dJJrVc23lADJ+6KtmPvgwcbBmLdGA1l4ZboLNcjw0/zeO/dGn5qvjTP8S2RgoPxT
NIfbpS2xa9AWUBJvR6OVw4+YnDCClBEDkPPLm1wz28tchg==
-----END CERTIFICATE-----
-----BEGIN PRIVATE KEY-----
MIIJQwIBADANBgkqhkiG9w0BAQEFAASCCS0wggkpAgEAAoICAQDiSpM9lCMoBMOA
L89Bj2Jx5jVEoGEWDmoPGQls2duRVTVOKIX06eKc6WAJwFq6DePNXcd1NVBoSlVI
lzPTTvOcPJpNDgMNccu12sh2AjoqTfxNXE8fl4tjjGglNCPoC6DLFF7d1Y1H85ye
gZCpIIvSsvjD2OddsPx+WC8Ie4N1+yRzWTTXCwE+6C6A+4j7bWucYEsne4uXLz+v
B0kmUvhL2Lgm92y5fCf41VCKzCA9KYN2Vpe2/yWdrbfIDtHn3FAgtMnFZaUu2hNd
tDQk4pKp+2rIZrMoeJdkf/UzPoC80bpsTa0xxDRzOdOfW9XNQ4UcGDYrQSrPdv0w
NIw2bFuTddvHwlwydtVnBBa1AR3cAC7tjR5TbNKFhDcoDEtvFFfKgc1JULN8UJnB
KpmR3A1Xa+/NFLik4dAVrANWRHcbgm4zRWpFF+6iEfhNrVo+fEJZ7xqyv6FTv6Y9
GSKSGEiELeZTyWQCID7rP63DxSw2fIQjnAee3XEF8TyFwbvwePNQt96g0ZtHVhHZ
msqklB10jBXGbxyIUzUNOFUk7emFLgQf2twp3UHoiguTq/ofcNlUyyvxhq35VHHg
2p/7ik3OqY4aX6WYahy7J0+QWyEtU9feXIdZyLqdw9wu3hq3Wz70uaFyIIoubcY+
4I1jkcUbYfDZ+1Bf4prXLHo1sv+pHwIDAQABAoICACfxYewMqef2b0vBJKQ92vKf
3+ctJ/XstWvUz4UXL1qH39Db9kk0v3tS9lDCU0FkEkG9u+dEcdz2wfb+OXejB/0b
9WCEiKVm4L5Iz/mEix/MhCxjjtPUvBXmQrvOaEgdRVSTU+t0Nmvs5EhWNmKkDAo0
7RQkxTIUe30Rs7ubkajRm62AoYMTvjSMZyj9PUCkH8qKdLmTZSBahrMuZgsNuiYp
Ktg19EsJT0Ts4jqdrVMecMYCouT6RHmAoF//va1fhgU/5B2jw3RxqdlwZYPdOmYm
qsKU3irWnmJu86kH71Fk87MKQvf12gw8uM34N9TzhhtfarBX4GaeajKIE/fHSKJ5
wb6FrxCT98tVo5hNe1I5DVqqCedTDZZteBlajn2YnPMv8bBDP3c01g7IxHeZbCma
ny4uwxWNg7kguB1SOaVEzNogMvgR6XnZTpZ5btZCO/iZVpBw2vBGMSkGWdjV7yWK
b3agxjDXW1TElt+br6AKphcIDNXegEvHk0R0de/xj9QRqPs+FWCTgtDO4KAx8myI
5v6DvjWEtbhcKRbr5LYZjpzOA9jUctFAyoIEW6nZGJRlOFY42ZpAv2rUVhwMXSIL
SrnIW2OTG5xdHM2fX86YMm+jgYpsFBqHAoZoENRgrEtCrWPXjAQYI+UzV9nRidS1
KZtn8IRnyShYWSiwvJCBAoIBAQDzZOM3tZyuBV4HWFXdcBAQiGW/joeCCctBuR53
uWfIcKXPrfh/2WERsnrt9HGYkrG0aUySBTwtOAzBzmCTMKLX+TaYh1LF0BAqPp9O
SOXnJd0lA9gU50J+eUvEbSydbWp86nqd6mf7emVHLlyyuM409Jo1/Vh7P7N4mbD+
TuZnKpdlUsZC3oLM1DiWdJGWcAhMH5CcZuhpCZ8IbGPM1IXZRY1FW+E1AMnWWncA
mqn4nmUSET5Mxw6R90vzmBh/2uiSV84Slbyt2k9o5DP2vQFHDoQ/xpzEQ/InRyUJ
fW7d4+2aZ1wgv3wq1a7ICBQ9Bpr2DEPUUGerR75wCR1qPsZ9AoIBAQDuAuzgCZbH
kKuRIH9WO29spnK/psgW73dyrgqVdYWLwg7PwdV8lj7poXDApR4vkT3SPbiAMbhc
OP6MWR6JdtCDG22xMyPIs7tFXq/22cMjDFBpcaLpgFPL8Xl8TVCYEV/w9ijVJluG
lBmfuFEP/T01Xe2k+xh00o4i+ECWOk7y+/DhTk/0suIVBwFKDuyxfgJ7uSTxlkK6
Hr+Vf4Y92/JEtN8j07H9VHfZrBe8xi6MW+vgesG3mria9kDnApExjG2EVx1+hMt7
IHDcqtuXb4wuwWOKfdzv9aOTcPq5i03EgsZZGshYq0eXY1f9rQeZWt3rwM/VTC1/
nGNp6GWb2JTLAoIBAQCtthWNDytx8Ba5+0vdLTvp8M9dtiX0o3TTxYF/RW5S2kMd
RDcVWFo1PUMLTek9UYVPE9A4b1ARne1M7TR0GMRAjHdwyTRERkkjPWqJfvHG1XlO
D75KvPryNTPkT18GRK851EgLKN9p1mMuOGKkk81ociMV4WkjHcXDjz2JY1qByx4e
jMM/unt0IQr6Jtw5mF/zpJubZL7/KIS+iE16RTv6Y+99zyOepp9nQ02nursQ3Eua
Z4AlX/SALRWiF610oxJWUCCdlw0Ar8z5OdX0hdTBmBS/R8tfMHdFnTtL2KAl8aUF
DDvui3vdPoDt9wYqv+odLYfDolc7IYtDft3llEQpAoIBAGQMzMAcp8o6ETTPYVfB
YkRc762KkV+6yA5oBMDxBvNJ3uoMhA58JfQVzgzdHARI3KDtGwqgW+xAdRhQOhr0
3A/QztqHMcqjatxtQjDVN0cbXQ4GG8JmFFONrVDIO1HBNABZqa54Ek9PIDpYw5Ki
FEHDuyr39j7dZ6xhiNzdo+RWbdp4DfpB2/GU4UDdZzfxTV/u4w2+6UvNsyFH2wlT
1NJ26bnoulBQWpUg11WeRWDxHwVc9OOWYXWagIvbM2eNrVfNOvO9JMAcUfUgyXAu
DtJ0rsA/ykkAjANloa+vVEB/7Jr2PDOxxEVqGEnlm2UmolUA1xzFifazqcKSU2wg
reMCggEBAKValSiWVyHN8MZ5vcU1me9NCbKyo0SySZGumP+VjYSP4L8XCUleoCNJ
Wfx7jM9JH6GcSW+oHocI7503cvWyWvgmbaGkI2R8Wp+qCfp7qtggdCIcicFMhkq9
LSrWik9DCUyDsqxVgrUPeVAAj8SHt0KQ1RtM+XH6CJHH+iuRLFghYcSGAjuwe93m
cpXrFu80IaBPClaivShIVO7KzlDx5TwBHqxiUc7wXAD1Cntgl67+DR9i45wQRb85
WbPZiwGVIYqyfWRoWnaLSACRdqmIIu/OoUP1485BYDt+0e2P3HJdhT0aUO4PrGY2
DS4MWxsLXdfsGtHO7YMVsVC6WgIivfI=
-----END PRIVATE KEY-----
