Certificate:
    Data:
        Version: 3 (0x2)
        Serial Number: 3 (0x3)
        Signature Algorithm: ecdsa-with-SHA256
        Issuer: CN=estExampleSUDICA1-1
        Validity
            Not Before: Jan 22 13:40:27 2020 GMT
            Not After : Jan 22 13:40:27 2040 GMT
        Subject: CN=127.0.0.1
        Subject Public Key Info:
            Public Key Algorithm: id-ecPublicKey
                Public-Key: (256 bit)
                pub:
                    04:e0:bd:ed:e8:14:94:c5:bc:c1:f8:cc:78:a4:73:
                    e0:df:42:7c:c0:04:b8:34:4e:6b:1b:65:9d:7d:52:
                    cf:ba:63:61:71:2d:91:fe:8a:47:e6:1a:97:39:38:
                    79:1d:01:4b:80:7b:5c:43:8f:8d:bd:9e:bd:82:a7:
                    a5:86:e9:3b:73
                ASN1 OID: prime256v1
                NIST CURVE: P-256
        X509v3 extensions:
            X509v3 Basic Constraints: 
                CA:FALSE
            X509v3 Key Usage: 
                Digital Signature, Non Repudiation, Key Encipherment
            X509v3 Subject Alternative Name: 
                DNS:localhost, DNS:ip6-localhost, IP Address:127.0.0.1, IP Address:0:0:0:0:0:0:0:1
            X509v3 CRL Distribution Points: 

                Full Name:
                  URI:http://example.com/crl.pem

    Signature Algorithm: ecdsa-with-SHA256
         30:45:02:20:41:6b:29:1d:da:32:e9:5b:d1:f7:41:ea:51:42:
         3d:8a:ae:21:98:72:cd:15:6c:3c:8f:9d:69:67:c6:7c:5c:64:
         02:21:00:e1:a4:ad:c2:94:f0:90:9e:ad:1e:dc:18:0e:44:29:
         33:3a:63:d1:35:a6:94:0a:71:ba:2b:17:35:6d:82:7d:b0
-----BEGIN CERTIFICATE-----
MIIBpzCCAU2gAwIBAgIBAzAKBggqhkjOPQQDAjAeMRwwGgYDVQQDDBNlc3RFeGFt
cGxlU1VESUNBMS0xMB4XDTIwMDEyMjEzNDAyN1oXDTQwMDEyMjEzNDAyN1owFDES
MBAGA1UEAwwJMTI3LjAuMC4xMFkwEwYHKoZIzj0CAQYIKoZIzj0DAQcDQgAE4L3t
6BSUxbzB+Mx4pHPg30J8wAS4NE5rG2WdfVLPumNhcS2R/opH5hqXOTh5HQFLgHtc
Q4+NvZ69gqelhuk7c6OBhTCBgjAJBgNVHRMEAjAAMAsGA1UdDwQEAwIF4DA7BgNV
HREENDAygglsb2NhbGhvc3SCDWlwNi1sb2NhbGhvc3SHBH8AAAGHEAAAAAAAAAAA
AAAAAAAAAAEwKwYDVR0fBCQwIjAgoB6gHIYaaHR0cDovL2V4YW1wbGUuY29tL2Ny
bC5wZW0wCgYIKoZIzj0EAwIDSAAwRQIgQWspHdoy6VvR90HqUUI9iq4hmHLNFWw8
j51pZ8Z8XGQCIQDhpK3ClPCQnq0e3BgORCkzOmPRNaaUCnG6Kxc1bYJ9sA==
-----END CERTIFICATE-----
-----BEGIN PRIVATE KEY-----
MIGHAgEAMBMGByqGSM49AgEGCCqGSM49AwEHBG0wawIBAQQghmXhiAjjsZjoKvyb
JitcwzwThm3kpFnoWp4ADXNFgduhRANCAATgve3oFJTFvMH4zHikc+DfQnzABLg0
TmsbZZ19Us+6Y2FxLZH+ikfmGpc5OHkdAUuAe1xDj429nr2Cp6WG6Ttz
-----END PRIVATE KEY-----
