-----BEGIN PRIVATE KEY-----
MIGHAgEAMBMGByqGSM49AgEGCCqGSM49AwEHBG0wawIBAQQgSpklh0pjsoV2vHfe
rpTQvAdS/Vqi+uAv7tmosVhgSFGhRANCAARk1GC4FTLx03ikV3ZLp305wpfEt3ba
3/o2eKFinKZWhV7PZwpByDAcA8To7b3K5MPMndjPgG7BSbiFQXpMVfzj
-----END PRIVATE KEY-----
Certificate:
    Data:
        Version: 3 (0x2)
        Serial Number: 1352 (0x548)
    Signature Algorithm: ecdsa-with-SHA256
        Issuer: CN=estExampleCA
        Validity
            Not Before: Jun  7 14:49:23 2018 GMT
            Not After : May 20 14:49:23 2030 GMT
        Subject: CN=127.0.0.1
        Subject Public Key Info:
            Public Key Algorithm: id-ecPublicKey
                Public-Key: (256 bit)
                pub: 
                    04:64:d4:60:b8:15:32:f1:d3:78:a4:57:76:4b:a7:
                    7d:39:c2:97:c4:b7:76:da:df:fa:36:78:a1:62:9c:
                    a6:56:85:5e:cf:67:0a:41:c8:30:1c:03:c4:e8:ed:
                    bd:ca:e4:c3:cc:9d:d8:cf:80:6e:c1:49:b8:85:41:
                    7a:4c:55:fc:e3
                ASN1 OID: prime256v1
                NIST CURVE: P-256
        X509v3 extensions:
            X509v3 Basic Constraints: 
                CA:FALSE
            X509v3 Key Usage: 
                Digital Signature
            X509v3 Extended Key Usage: critical
                TLS Web Server Authentication, TLS Web Client Authentication, 1.3.6.1.5.5.7.3.28
            X509v3 Subject Key Identifier: 
                63:A7:66:99:2A:71:6B:18:8A:36:A8:87:C5:3E:0C:AB:90:87:56:14
            X509v3 Authority Key Identifier: 
                keyid:66:E5:56:CA:93:2B:02:0B:57:A4:D4:E2:ED:5F:CA:A4:EE:7D:83:F9

    Signature Algorithm: ecdsa-with-SHA256
         30:44:02:20:52:f0:73:f8:9d:26:08:eb:55:f2:0b:14:0b:68:
         21:22:11:a8:59:51:5b:52:eb:99:ce:83:dd:f1:64:e6:c6:a7:
         02:20:4c:d3:5f:a5:85:ee:97:f8:d2:f1:67:c8:1a:b9:f6:6e:
         a2:a9:ed:6a:71:83:33:06:8a:64:87:68:ab:c7:4c:d9
-----BEGIN CERTIFICATE-----
MIIBojCCAUmgAwIBAgICBUgwCgYIKoZIzj0EAwIwFzEVMBMGA1UEAxMMZXN0RXhh
bXBsZUNBMB4XDTE4MDYwNzE0NDkyM1oXDTMwMDUyMDE0NDkyM1owFDESMBAGA1UE
AwwJMTI3LjAuMC4xMFkwEwYHKoZIzj0CAQYIKoZIzj0DAQcDQgAEZNRguBUy8dN4
pFd2S6d9OcKXxLd22t/6NnihYpymVoVez2cKQcgwHAPE6O29yuTDzJ3Yz4BuwUm4
hUF6TFX846OBhzCBhDAJBgNVHRMEAjAAMAsGA1UdDwQEAwIHgDAqBgNVHSUBAf8E
IDAeBggrBgEFBQcDAQYIKwYBBQUHAwIGCCsGAQUFBwMcMB0GA1UdDgQWBBRjp2aZ
KnFrGIo2qIfFPgyrkIdWFDAfBgNVHSMEGDAWgBRm5VbKkysCC1ek1OLtX8qk7n2D
+TAKBggqhkjOPQQDAgNHADBEAiBS8HP4nSYI61XyCxQLaCEiEahZUVtS65nOg93x
ZObGpwIgTNNfpYXul/jS8WfIGrn2bqKp7WpxgzMGimSHaKvHTNk=
-----END CERTIFICATE-----
